
DPOPS_v1.elf:     file format elf32-littlearm

Sections:
Idx Name          Size      VMA       LMA       File off  Algn
  0 .text         0000329c  00000000  00000000  00010000  2**2
                  CONTENTS, ALLOC, LOAD, READONLY, CODE
  1 .relocate     00000174  20000000  0000329c  00020000  2**2
                  CONTENTS, ALLOC, LOAD, DATA
  2 .bss          000002d8  20000174  00003410  00020174  2**2
                  ALLOC
  3 .stack        00002004  2000044c  000036e8  00020174  2**0
                  ALLOC
  4 .ARM.attributes 00000028  00000000  00000000  00020174  2**0
                  CONTENTS, READONLY
  5 .comment      00000059  00000000  00000000  0002019c  2**0
                  CONTENTS, READONLY
  6 .debug_frame  00000164  00000000  00000000  000201f8  2**2
                  CONTENTS, READONLY, DEBUGGING

Disassembly of section .text:

00000000 <exception_table>:
       0:	50 24 00 20 25 01 00 00 21 01 00 00 21 01 00 00     P$. %...!...!...
	...
      2c:	21 01 00 00 00 00 00 00 00 00 00 00 21 01 00 00     !...........!...
      3c:	21 01 00 00 21 01 00 00 21 01 00 00 21 01 00 00     !...!...!...!...
      4c:	6d 11 00 00 ad 0f 00 00 21 01 00 00 21 01 00 00     m.......!...!...
      5c:	21 01 00 00 21 01 00 00 01 14 00 00 15 14 00 00     !...!...........
      6c:	21 01 00 00 21 01 00 00 29 14 00 00 21 01 00 00     !...!...)...!...
      7c:	21 01 00 00 21 01 00 00 21 01 00 00 21 01 00 00     !...!...!...!...
      8c:	21 01 00 00 21 01 00 00 00 00 00 00 00 00 00 00     !...!...........
      9c:	21 01 00 00 21 01 00 00 21 01 00 00 21 01 00 00     !...!...!...!...
      ac:	21 01 00 00 00 00 00 00                             !.......

000000b4 <__do_global_dtors_aux>:
      b4:	b510      	push	{r4, lr}
      b6:	4c06      	ldr	r4, [pc, #24]	; (d0 <__do_global_dtors_aux+0x1c>)
      b8:	7823      	ldrb	r3, [r4, #0]
      ba:	2b00      	cmp	r3, #0
      bc:	d107      	bne.n	ce <__do_global_dtors_aux+0x1a>
      be:	4b05      	ldr	r3, [pc, #20]	; (d4 <__do_global_dtors_aux+0x20>)
      c0:	2b00      	cmp	r3, #0
      c2:	d002      	beq.n	ca <__do_global_dtors_aux+0x16>
      c4:	4804      	ldr	r0, [pc, #16]	; (d8 <__do_global_dtors_aux+0x24>)
      c6:	e000      	b.n	ca <__do_global_dtors_aux+0x16>
      c8:	bf00      	nop
      ca:	2301      	movs	r3, #1
      cc:	7023      	strb	r3, [r4, #0]
      ce:	bd10      	pop	{r4, pc}
      d0:	20000174 	.word	0x20000174
      d4:	00000000 	.word	0x00000000
      d8:	0000329c 	.word	0x0000329c

000000dc <frame_dummy>:
      dc:	4b08      	ldr	r3, [pc, #32]	; (100 <frame_dummy+0x24>)
      de:	b510      	push	{r4, lr}
      e0:	2b00      	cmp	r3, #0
      e2:	d003      	beq.n	ec <frame_dummy+0x10>
      e4:	4907      	ldr	r1, [pc, #28]	; (104 <frame_dummy+0x28>)
      e6:	4808      	ldr	r0, [pc, #32]	; (108 <frame_dummy+0x2c>)
      e8:	e000      	b.n	ec <frame_dummy+0x10>
      ea:	bf00      	nop
      ec:	4807      	ldr	r0, [pc, #28]	; (10c <frame_dummy+0x30>)
      ee:	6803      	ldr	r3, [r0, #0]
      f0:	2b00      	cmp	r3, #0
      f2:	d100      	bne.n	f6 <frame_dummy+0x1a>
      f4:	bd10      	pop	{r4, pc}
      f6:	4b06      	ldr	r3, [pc, #24]	; (110 <frame_dummy+0x34>)
      f8:	2b00      	cmp	r3, #0
      fa:	d0fb      	beq.n	f4 <frame_dummy+0x18>
      fc:	4798      	blx	r3
      fe:	e7f9      	b.n	f4 <frame_dummy+0x18>
     100:	00000000 	.word	0x00000000
     104:	20000178 	.word	0x20000178
     108:	0000329c 	.word	0x0000329c
     10c:	0000329c 	.word	0x0000329c
     110:	00000000 	.word	0x00000000

00000114 <atmel_start_init>:
     114:	b510      	push	{r4, lr}
     116:	4b01      	ldr	r3, [pc, #4]	; (11c <atmel_start_init+0x8>)
     118:	4798      	blx	r3
     11a:	bd10      	pop	{r4, pc}
     11c:	00000591 	.word	0x00000591

00000120 <Dummy_Handler>:
     120:	e7fe      	b.n	120 <Dummy_Handler>
	...

00000124 <Reset_Handler>:
     124:	4821      	ldr	r0, [pc, #132]	; (1ac <Reset_Handler+0x88>)
     126:	4922      	ldr	r1, [pc, #136]	; (1b0 <Reset_Handler+0x8c>)
     128:	b570      	push	{r4, r5, r6, lr}
     12a:	4288      	cmp	r0, r1
     12c:	d004      	beq.n	138 <Reset_Handler+0x14>
     12e:	2300      	movs	r3, #0
     130:	4c20      	ldr	r4, [pc, #128]	; (1b4 <Reset_Handler+0x90>)
     132:	18ca      	adds	r2, r1, r3
     134:	42a2      	cmp	r2, r4
     136:	d332      	bcc.n	19e <Reset_Handler+0x7a>
     138:	2100      	movs	r1, #0
     13a:	4b1f      	ldr	r3, [pc, #124]	; (1b8 <Reset_Handler+0x94>)
     13c:	4a1f      	ldr	r2, [pc, #124]	; (1bc <Reset_Handler+0x98>)
     13e:	4293      	cmp	r3, r2
     140:	d331      	bcc.n	1a6 <Reset_Handler+0x82>
     142:	21ff      	movs	r1, #255	; 0xff
     144:	4b1e      	ldr	r3, [pc, #120]	; (1c0 <Reset_Handler+0x9c>)
     146:	4a1f      	ldr	r2, [pc, #124]	; (1c4 <Reset_Handler+0xa0>)
     148:	438b      	bics	r3, r1
     14a:	6093      	str	r3, [r2, #8]
     14c:	2202      	movs	r2, #2
     14e:	250c      	movs	r5, #12
     150:	2408      	movs	r4, #8
     152:	2630      	movs	r6, #48	; 0x30
     154:	4b1c      	ldr	r3, [pc, #112]	; (1c8 <Reset_Handler+0xa4>)
     156:	481d      	ldr	r0, [pc, #116]	; (1cc <Reset_Handler+0xa8>)
     158:	625a      	str	r2, [r3, #36]	; 0x24
     15a:	78c3      	ldrb	r3, [r0, #3]
     15c:	39fc      	subs	r1, #252	; 0xfc
     15e:	438b      	bics	r3, r1
     160:	4313      	orrs	r3, r2
     162:	70c3      	strb	r3, [r0, #3]
     164:	78c3      	ldrb	r3, [r0, #3]
     166:	43ab      	bics	r3, r5
     168:	4323      	orrs	r3, r4
     16a:	70c3      	strb	r3, [r0, #3]
     16c:	4b18      	ldr	r3, [pc, #96]	; (1d0 <Reset_Handler+0xac>)
     16e:	7b98      	ldrb	r0, [r3, #14]
     170:	43b0      	bics	r0, r6
     172:	0006      	movs	r6, r0
     174:	2020      	movs	r0, #32
     176:	4330      	orrs	r0, r6
     178:	7398      	strb	r0, [r3, #14]
     17a:	7b98      	ldrb	r0, [r3, #14]
     17c:	43a8      	bics	r0, r5
     17e:	4304      	orrs	r4, r0
     180:	739c      	strb	r4, [r3, #14]
     182:	7b98      	ldrb	r0, [r3, #14]
     184:	4388      	bics	r0, r1
     186:	4302      	orrs	r2, r0
     188:	739a      	strb	r2, [r3, #14]
     18a:	2380      	movs	r3, #128	; 0x80
     18c:	4a11      	ldr	r2, [pc, #68]	; (1d4 <Reset_Handler+0xb0>)
     18e:	6851      	ldr	r1, [r2, #4]
     190:	430b      	orrs	r3, r1
     192:	6053      	str	r3, [r2, #4]
     194:	4b10      	ldr	r3, [pc, #64]	; (1d8 <Reset_Handler+0xb4>)
     196:	4798      	blx	r3
     198:	4b10      	ldr	r3, [pc, #64]	; (1dc <Reset_Handler+0xb8>)
     19a:	4798      	blx	r3
     19c:	e7fe      	b.n	19c <Reset_Handler+0x78>
     19e:	58c5      	ldr	r5, [r0, r3]
     1a0:	3304      	adds	r3, #4
     1a2:	6015      	str	r5, [r2, #0]
     1a4:	e7c5      	b.n	132 <Reset_Handler+0xe>
     1a6:	c302      	stmia	r3!, {r1}
     1a8:	e7c9      	b.n	13e <Reset_Handler+0x1a>
     1aa:	46c0      	nop			; (mov r8, r8)
     1ac:	0000329c 	.word	0x0000329c
     1b0:	20000000 	.word	0x20000000
     1b4:	20000174 	.word	0x20000174
     1b8:	20000174 	.word	0x20000174
     1bc:	2000044c 	.word	0x2000044c
     1c0:	00000000 	.word	0x00000000
     1c4:	e000ed00 	.word	0xe000ed00
     1c8:	410070fc 	.word	0x410070fc
     1cc:	41005000 	.word	0x41005000
     1d0:	41004800 	.word	0x41004800
     1d4:	41004000 	.word	0x41004000
     1d8:	00002e21 	.word	0x00002e21
     1dc:	000018d5 	.word	0x000018d5

000001e0 <_gpio_set_pin_function>:
     1e0:	b570      	push	{r4, r5, r6, lr}
     1e2:	241f      	movs	r4, #31
     1e4:	0942      	lsrs	r2, r0, #5
     1e6:	b2c0      	uxtb	r0, r0
     1e8:	4004      	ands	r4, r0
     1ea:	23ff      	movs	r3, #255	; 0xff
     1ec:	1c4d      	adds	r5, r1, #1
     1ee:	d109      	bne.n	204 <_gpio_set_pin_function+0x24>
     1f0:	401a      	ands	r2, r3
     1f2:	01d2      	lsls	r2, r2, #7
     1f4:	4b14      	ldr	r3, [pc, #80]	; (248 <_gpio_set_pin_function+0x68>)
     1f6:	18a2      	adds	r2, r4, r2
     1f8:	18d2      	adds	r2, r2, r3
     1fa:	7813      	ldrb	r3, [r2, #0]
     1fc:	3102      	adds	r1, #2
     1fe:	438b      	bics	r3, r1
     200:	7013      	strb	r3, [r2, #0]
     202:	bd70      	pop	{r4, r5, r6, pc}
     204:	2501      	movs	r5, #1
     206:	4013      	ands	r3, r2
     208:	4a10      	ldr	r2, [pc, #64]	; (24c <_gpio_set_pin_function+0x6c>)
     20a:	01db      	lsls	r3, r3, #7
     20c:	189b      	adds	r3, r3, r2
     20e:	191e      	adds	r6, r3, r4
     210:	3640      	adds	r6, #64	; 0x40
     212:	7832      	ldrb	r2, [r6, #0]
     214:	43aa      	bics	r2, r5
     216:	432a      	orrs	r2, r5
     218:	7032      	strb	r2, [r6, #0]
     21a:	0862      	lsrs	r2, r4, #1
     21c:	4228      	tst	r0, r5
     21e:	d009      	beq.n	234 <_gpio_set_pin_function+0x54>
     220:	200f      	movs	r0, #15
     222:	189a      	adds	r2, r3, r2
     224:	3230      	adds	r2, #48	; 0x30
     226:	7813      	ldrb	r3, [r2, #0]
     228:	0109      	lsls	r1, r1, #4
     22a:	4003      	ands	r3, r0
     22c:	4319      	orrs	r1, r3
     22e:	b2c9      	uxtb	r1, r1
     230:	7011      	strb	r1, [r2, #0]
     232:	e7e6      	b.n	202 <_gpio_set_pin_function+0x22>
     234:	200f      	movs	r0, #15
     236:	189b      	adds	r3, r3, r2
     238:	3330      	adds	r3, #48	; 0x30
     23a:	781a      	ldrb	r2, [r3, #0]
     23c:	4001      	ands	r1, r0
     23e:	4382      	bics	r2, r0
     240:	4311      	orrs	r1, r2
     242:	7019      	strb	r1, [r3, #0]
     244:	e7dd      	b.n	202 <_gpio_set_pin_function+0x22>
     246:	46c0      	nop			; (mov r8, r8)
     248:	41004440 	.word	0x41004440
     24c:	41004400 	.word	0x41004400

00000250 <gpio_set_pin_direction>:
     250:	221f      	movs	r2, #31
     252:	0943      	lsrs	r3, r0, #5
     254:	4010      	ands	r0, r2
     256:	3a1e      	subs	r2, #30
     258:	b510      	push	{r4, lr}
     25a:	4082      	lsls	r2, r0
     25c:	2901      	cmp	r1, #1
     25e:	d01b      	beq.n	298 <gpio_set_pin_direction+0x48>
     260:	2900      	cmp	r1, #0
     262:	d007      	beq.n	274 <gpio_set_pin_direction+0x24>
     264:	2902      	cmp	r1, #2
     266:	d025      	beq.n	2b4 <gpio_set_pin_direction+0x64>
     268:	2245      	movs	r2, #69	; 0x45
     26a:	491a      	ldr	r1, [pc, #104]	; (2d4 <gpio_set_pin_direction+0x84>)
     26c:	2000      	movs	r0, #0
     26e:	4b1a      	ldr	r3, [pc, #104]	; (2d8 <gpio_set_pin_direction+0x88>)
     270:	4798      	blx	r3
     272:	e010      	b.n	296 <gpio_set_pin_direction+0x46>
     274:	21c0      	movs	r1, #192	; 0xc0
     276:	01db      	lsls	r3, r3, #7
     278:	05c9      	lsls	r1, r1, #23
     27a:	1859      	adds	r1, r3, r1
     27c:	604a      	str	r2, [r1, #4]
     27e:	2180      	movs	r1, #128	; 0x80
     280:	b290      	uxth	r0, r2
     282:	05c9      	lsls	r1, r1, #23
     284:	4301      	orrs	r1, r0
     286:	4815      	ldr	r0, [pc, #84]	; (2dc <gpio_set_pin_direction+0x8c>)
     288:	181b      	adds	r3, r3, r0
     28a:	6299      	str	r1, [r3, #40]	; 0x28
     28c:	0c11      	lsrs	r1, r2, #16
     28e:	22c0      	movs	r2, #192	; 0xc0
     290:	0612      	lsls	r2, r2, #24
     292:	430a      	orrs	r2, r1
     294:	629a      	str	r2, [r3, #40]	; 0x28
     296:	bd10      	pop	{r4, pc}
     298:	21c0      	movs	r1, #192	; 0xc0
     29a:	01db      	lsls	r3, r3, #7
     29c:	05c9      	lsls	r1, r1, #23
     29e:	1859      	adds	r1, r3, r1
     2a0:	604a      	str	r2, [r1, #4]
     2a2:	490f      	ldr	r1, [pc, #60]	; (2e0 <gpio_set_pin_direction+0x90>)
     2a4:	b290      	uxth	r0, r2
     2a6:	4301      	orrs	r1, r0
     2a8:	480c      	ldr	r0, [pc, #48]	; (2dc <gpio_set_pin_direction+0x8c>)
     2aa:	181b      	adds	r3, r3, r0
     2ac:	6299      	str	r1, [r3, #40]	; 0x28
     2ae:	0c11      	lsrs	r1, r2, #16
     2b0:	4a0c      	ldr	r2, [pc, #48]	; (2e4 <gpio_set_pin_direction+0x94>)
     2b2:	e7ee      	b.n	292 <gpio_set_pin_direction+0x42>
     2b4:	21c0      	movs	r1, #192	; 0xc0
     2b6:	01db      	lsls	r3, r3, #7
     2b8:	05c9      	lsls	r1, r1, #23
     2ba:	1859      	adds	r1, r3, r1
     2bc:	608a      	str	r2, [r1, #8]
     2be:	2180      	movs	r1, #128	; 0x80
     2c0:	b290      	uxth	r0, r2
     2c2:	05c9      	lsls	r1, r1, #23
     2c4:	4301      	orrs	r1, r0
     2c6:	4805      	ldr	r0, [pc, #20]	; (2dc <gpio_set_pin_direction+0x8c>)
     2c8:	0c12      	lsrs	r2, r2, #16
     2ca:	181b      	adds	r3, r3, r0
     2cc:	6299      	str	r1, [r3, #40]	; 0x28
     2ce:	21c0      	movs	r1, #192	; 0xc0
     2d0:	0609      	lsls	r1, r1, #24
     2d2:	e7de      	b.n	292 <gpio_set_pin_direction+0x42>
     2d4:	00002e68 	.word	0x00002e68
     2d8:	00000ea1 	.word	0x00000ea1
     2dc:	41004400 	.word	0x41004400
     2e0:	40020000 	.word	0x40020000
     2e4:	c0020000 	.word	0xc0020000

000002e8 <EXTERNAL_IRQ_0_init>:
     2e8:	4a0a      	ldr	r2, [pc, #40]	; (314 <EXTERNAL_IRQ_0_init+0x2c>)
     2ea:	4b0b      	ldr	r3, [pc, #44]	; (318 <EXTERNAL_IRQ_0_init+0x30>)
     2ec:	b510      	push	{r4, lr}
     2ee:	2101      	movs	r1, #1
     2f0:	805a      	strh	r2, [r3, #2]
     2f2:	2023      	movs	r0, #35	; 0x23
     2f4:	4b09      	ldr	r3, [pc, #36]	; (31c <EXTERNAL_IRQ_0_init+0x34>)
     2f6:	4798      	blx	r3
     2f8:	2104      	movs	r1, #4
     2fa:	4a09      	ldr	r2, [pc, #36]	; (320 <EXTERNAL_IRQ_0_init+0x38>)
     2fc:	2023      	movs	r0, #35	; 0x23
     2fe:	7813      	ldrb	r3, [r2, #0]
     300:	438b      	bics	r3, r1
     302:	218c      	movs	r1, #140	; 0x8c
     304:	7013      	strb	r3, [r2, #0]
     306:	0389      	lsls	r1, r1, #14
     308:	4b06      	ldr	r3, [pc, #24]	; (324 <EXTERNAL_IRQ_0_init+0x3c>)
     30a:	4798      	blx	r3
     30c:	4b06      	ldr	r3, [pc, #24]	; (328 <EXTERNAL_IRQ_0_init+0x40>)
     30e:	4798      	blx	r3
     310:	bd10      	pop	{r4, pc}
     312:	46c0      	nop			; (mov r8, r8)
     314:	00004005 	.word	0x00004005
     318:	40000c00 	.word	0x40000c00
     31c:	00000251 	.word	0x00000251
     320:	410044c3 	.word	0x410044c3
     324:	000001e1 	.word	0x000001e1
     328:	000007d1 	.word	0x000007d1

0000032c <spi_ad_da_port_init>:
     32c:	b570      	push	{r4, r5, r6, lr}
     32e:	2380      	movs	r3, #128	; 0x80
     330:	26c0      	movs	r6, #192	; 0xc0
     332:	005b      	lsls	r3, r3, #1
     334:	05f6      	lsls	r6, r6, #23
     336:	6173      	str	r3, [r6, #20]
     338:	4d0e      	ldr	r5, [pc, #56]	; (374 <spi_ad_da_port_init+0x48>)
     33a:	2102      	movs	r1, #2
     33c:	2008      	movs	r0, #8
     33e:	47a8      	blx	r5
     340:	4c0d      	ldr	r4, [pc, #52]	; (378 <spi_ad_da_port_init+0x4c>)
     342:	490e      	ldr	r1, [pc, #56]	; (37c <spi_ad_da_port_init+0x50>)
     344:	2008      	movs	r0, #8
     346:	47a0      	blx	r4
     348:	2380      	movs	r3, #128	; 0x80
     34a:	009b      	lsls	r3, r3, #2
     34c:	6173      	str	r3, [r6, #20]
     34e:	2102      	movs	r1, #2
     350:	2009      	movs	r0, #9
     352:	47a8      	blx	r5
     354:	490a      	ldr	r1, [pc, #40]	; (380 <spi_ad_da_port_init+0x54>)
     356:	2009      	movs	r0, #9
     358:	47a0      	blx	r4
     35a:	2101      	movs	r1, #1
     35c:	200a      	movs	r0, #10
     35e:	47a8      	blx	r5
     360:	2104      	movs	r1, #4
     362:	4a08      	ldr	r2, [pc, #32]	; (384 <spi_ad_da_port_init+0x58>)
     364:	200a      	movs	r0, #10
     366:	7813      	ldrb	r3, [r2, #0]
     368:	438b      	bics	r3, r1
     36a:	7013      	strb	r3, [r2, #0]
     36c:	4906      	ldr	r1, [pc, #24]	; (388 <spi_ad_da_port_init+0x5c>)
     36e:	47a0      	blx	r4
     370:	bd70      	pop	{r4, r5, r6, pc}
     372:	46c0      	nop			; (mov r8, r8)
     374:	00000251 	.word	0x00000251
     378:	000001e1 	.word	0x000001e1
     37c:	00080002 	.word	0x00080002
     380:	00090002 	.word	0x00090002
     384:	4100444a 	.word	0x4100444a
     388:	000a0002 	.word	0x000a0002

0000038c <spi_ad_da_clock_init>:
     38c:	2304      	movs	r3, #4
     38e:	4a04      	ldr	r2, [pc, #16]	; (3a0 <spi_ad_da_clock_init+0x14>)
     390:	6a11      	ldr	r1, [r2, #32]
     392:	430b      	orrs	r3, r1
     394:	6213      	str	r3, [r2, #32]
     396:	4a03      	ldr	r2, [pc, #12]	; (3a4 <spi_ad_da_clock_init+0x18>)
     398:	4b03      	ldr	r3, [pc, #12]	; (3a8 <spi_ad_da_clock_init+0x1c>)
     39a:	805a      	strh	r2, [r3, #2]
     39c:	4770      	bx	lr
     39e:	46c0      	nop			; (mov r8, r8)
     3a0:	40000400 	.word	0x40000400
     3a4:	00004014 	.word	0x00004014
     3a8:	40000c00 	.word	0x40000c00

000003ac <spi_ad_da_init>:
     3ac:	b510      	push	{r4, lr}
     3ae:	4b04      	ldr	r3, [pc, #16]	; (3c0 <spi_ad_da_init+0x14>)
     3b0:	4798      	blx	r3
     3b2:	4904      	ldr	r1, [pc, #16]	; (3c4 <spi_ad_da_init+0x18>)
     3b4:	4b04      	ldr	r3, [pc, #16]	; (3c8 <spi_ad_da_init+0x1c>)
     3b6:	4805      	ldr	r0, [pc, #20]	; (3cc <spi_ad_da_init+0x20>)
     3b8:	4798      	blx	r3
     3ba:	4b05      	ldr	r3, [pc, #20]	; (3d0 <spi_ad_da_init+0x24>)
     3bc:	4798      	blx	r3
     3be:	bd10      	pop	{r4, pc}
     3c0:	0000038d 	.word	0x0000038d
     3c4:	42000800 	.word	0x42000800
     3c8:	000009cd 	.word	0x000009cd
     3cc:	20000394 	.word	0x20000394
     3d0:	0000032d 	.word	0x0000032d

000003d4 <spi_pr_sn_port_init>:
     3d4:	b570      	push	{r4, r5, r6, lr}
     3d6:	2101      	movs	r1, #1
     3d8:	4d10      	ldr	r5, [pc, #64]	; (41c <spi_pr_sn_port_init+0x48>)
     3da:	2010      	movs	r0, #16
     3dc:	47a8      	blx	r5
     3de:	2104      	movs	r1, #4
     3e0:	4a0f      	ldr	r2, [pc, #60]	; (420 <spi_pr_sn_port_init+0x4c>)
     3e2:	4c10      	ldr	r4, [pc, #64]	; (424 <spi_pr_sn_port_init+0x50>)
     3e4:	7813      	ldrb	r3, [r2, #0]
     3e6:	2010      	movs	r0, #16
     3e8:	438b      	bics	r3, r1
     3ea:	7013      	strb	r3, [r2, #0]
     3ec:	490e      	ldr	r1, [pc, #56]	; (428 <spi_pr_sn_port_init+0x54>)
     3ee:	47a0      	blx	r4
     3f0:	26c0      	movs	r6, #192	; 0xc0
     3f2:	2380      	movs	r3, #128	; 0x80
     3f4:	05f6      	lsls	r6, r6, #23
     3f6:	029b      	lsls	r3, r3, #10
     3f8:	6173      	str	r3, [r6, #20]
     3fa:	2102      	movs	r1, #2
     3fc:	2011      	movs	r0, #17
     3fe:	47a8      	blx	r5
     400:	490a      	ldr	r1, [pc, #40]	; (42c <spi_pr_sn_port_init+0x58>)
     402:	2011      	movs	r0, #17
     404:	47a0      	blx	r4
     406:	2380      	movs	r3, #128	; 0x80
     408:	031b      	lsls	r3, r3, #12
     40a:	6173      	str	r3, [r6, #20]
     40c:	2102      	movs	r1, #2
     40e:	2013      	movs	r0, #19
     410:	47a8      	blx	r5
     412:	4907      	ldr	r1, [pc, #28]	; (430 <spi_pr_sn_port_init+0x5c>)
     414:	2013      	movs	r0, #19
     416:	47a0      	blx	r4
     418:	bd70      	pop	{r4, r5, r6, pc}
     41a:	46c0      	nop			; (mov r8, r8)
     41c:	00000251 	.word	0x00000251
     420:	41004450 	.word	0x41004450
     424:	000001e1 	.word	0x000001e1
     428:	00100002 	.word	0x00100002
     42c:	00110002 	.word	0x00110002
     430:	00130002 	.word	0x00130002

00000434 <spi_pr_sn_clock_init>:
     434:	2308      	movs	r3, #8
     436:	4a04      	ldr	r2, [pc, #16]	; (448 <spi_pr_sn_clock_init+0x14>)
     438:	6a11      	ldr	r1, [r2, #32]
     43a:	430b      	orrs	r3, r1
     43c:	6213      	str	r3, [r2, #32]
     43e:	4a03      	ldr	r2, [pc, #12]	; (44c <spi_pr_sn_clock_init+0x18>)
     440:	4b03      	ldr	r3, [pc, #12]	; (450 <spi_pr_sn_clock_init+0x1c>)
     442:	805a      	strh	r2, [r3, #2]
     444:	4770      	bx	lr
     446:	46c0      	nop			; (mov r8, r8)
     448:	40000400 	.word	0x40000400
     44c:	00004015 	.word	0x00004015
     450:	40000c00 	.word	0x40000c00

00000454 <spi_pr_sn_init>:
     454:	b510      	push	{r4, lr}
     456:	4b04      	ldr	r3, [pc, #16]	; (468 <spi_pr_sn_init+0x14>)
     458:	4798      	blx	r3
     45a:	4904      	ldr	r1, [pc, #16]	; (46c <spi_pr_sn_init+0x18>)
     45c:	4b04      	ldr	r3, [pc, #16]	; (470 <spi_pr_sn_init+0x1c>)
     45e:	4805      	ldr	r0, [pc, #20]	; (474 <spi_pr_sn_init+0x20>)
     460:	4798      	blx	r3
     462:	4b05      	ldr	r3, [pc, #20]	; (478 <spi_pr_sn_init+0x24>)
     464:	4798      	blx	r3
     466:	bd10      	pop	{r4, pc}
     468:	00000435 	.word	0x00000435
     46c:	42000c00 	.word	0x42000c00
     470:	000009cd 	.word	0x000009cd
     474:	2000034c 	.word	0x2000034c
     478:	000003d5 	.word	0x000003d5

0000047c <spi_sd_port_init>:
     47c:	b570      	push	{r4, r5, r6, lr}
     47e:	2380      	movs	r3, #128	; 0x80
     480:	26c0      	movs	r6, #192	; 0xc0
     482:	015b      	lsls	r3, r3, #5
     484:	05f6      	lsls	r6, r6, #23
     486:	6173      	str	r3, [r6, #20]
     488:	4d0e      	ldr	r5, [pc, #56]	; (4c4 <spi_sd_port_init+0x48>)
     48a:	2102      	movs	r1, #2
     48c:	200c      	movs	r0, #12
     48e:	47a8      	blx	r5
     490:	4c0d      	ldr	r4, [pc, #52]	; (4c8 <spi_sd_port_init+0x4c>)
     492:	490e      	ldr	r1, [pc, #56]	; (4cc <spi_sd_port_init+0x50>)
     494:	200c      	movs	r0, #12
     496:	47a0      	blx	r4
     498:	2380      	movs	r3, #128	; 0x80
     49a:	019b      	lsls	r3, r3, #6
     49c:	6173      	str	r3, [r6, #20]
     49e:	2102      	movs	r1, #2
     4a0:	200d      	movs	r0, #13
     4a2:	47a8      	blx	r5
     4a4:	490a      	ldr	r1, [pc, #40]	; (4d0 <spi_sd_port_init+0x54>)
     4a6:	200d      	movs	r0, #13
     4a8:	47a0      	blx	r4
     4aa:	2101      	movs	r1, #1
     4ac:	200f      	movs	r0, #15
     4ae:	47a8      	blx	r5
     4b0:	2104      	movs	r1, #4
     4b2:	4a08      	ldr	r2, [pc, #32]	; (4d4 <spi_sd_port_init+0x58>)
     4b4:	200f      	movs	r0, #15
     4b6:	7813      	ldrb	r3, [r2, #0]
     4b8:	438b      	bics	r3, r1
     4ba:	7013      	strb	r3, [r2, #0]
     4bc:	4906      	ldr	r1, [pc, #24]	; (4d8 <spi_sd_port_init+0x5c>)
     4be:	47a0      	blx	r4
     4c0:	bd70      	pop	{r4, r5, r6, pc}
     4c2:	46c0      	nop			; (mov r8, r8)
     4c4:	00000251 	.word	0x00000251
     4c8:	000001e1 	.word	0x000001e1
     4cc:	000c0003 	.word	0x000c0003
     4d0:	000d0003 	.word	0x000d0003
     4d4:	4100444f 	.word	0x4100444f
     4d8:	000f0003 	.word	0x000f0003

000004dc <spi_sd_clock_init>:
     4dc:	2340      	movs	r3, #64	; 0x40
     4de:	4a04      	ldr	r2, [pc, #16]	; (4f0 <spi_sd_clock_init+0x14>)
     4e0:	6a11      	ldr	r1, [r2, #32]
     4e2:	430b      	orrs	r3, r1
     4e4:	6213      	str	r3, [r2, #32]
     4e6:	4a03      	ldr	r2, [pc, #12]	; (4f4 <spi_sd_clock_init+0x18>)
     4e8:	4b03      	ldr	r3, [pc, #12]	; (4f8 <spi_sd_clock_init+0x1c>)
     4ea:	805a      	strh	r2, [r3, #2]
     4ec:	4770      	bx	lr
     4ee:	46c0      	nop			; (mov r8, r8)
     4f0:	40000400 	.word	0x40000400
     4f4:	00004018 	.word	0x00004018
     4f8:	40000c00 	.word	0x40000c00

000004fc <spi_sd_init>:
     4fc:	b510      	push	{r4, lr}
     4fe:	4b04      	ldr	r3, [pc, #16]	; (510 <spi_sd_init+0x14>)
     500:	4798      	blx	r3
     502:	4904      	ldr	r1, [pc, #16]	; (514 <spi_sd_init+0x18>)
     504:	4b04      	ldr	r3, [pc, #16]	; (518 <spi_sd_init+0x1c>)
     506:	4805      	ldr	r0, [pc, #20]	; (51c <spi_sd_init+0x20>)
     508:	4798      	blx	r3
     50a:	4b05      	ldr	r3, [pc, #20]	; (520 <spi_sd_init+0x24>)
     50c:	4798      	blx	r3
     50e:	bd10      	pop	{r4, pc}
     510:	000004dd 	.word	0x000004dd
     514:	42001800 	.word	0x42001800
     518:	000009cd 	.word	0x000009cd
     51c:	200003dc 	.word	0x200003dc
     520:	0000047d 	.word	0x0000047d

00000524 <usart_0_port_init>:
     524:	b510      	push	{r4, lr}
     526:	4904      	ldr	r1, [pc, #16]	; (538 <usart_0_port_init+0x14>)
     528:	4c04      	ldr	r4, [pc, #16]	; (53c <usart_0_port_init+0x18>)
     52a:	2036      	movs	r0, #54	; 0x36
     52c:	47a0      	blx	r4
     52e:	4904      	ldr	r1, [pc, #16]	; (540 <usart_0_port_init+0x1c>)
     530:	2037      	movs	r0, #55	; 0x37
     532:	47a0      	blx	r4
     534:	bd10      	pop	{r4, pc}
     536:	46c0      	nop			; (mov r8, r8)
     538:	00360003 	.word	0x00360003
     53c:	000001e1 	.word	0x000001e1
     540:	00370003 	.word	0x00370003

00000544 <usart_0_clock_init>:
     544:	2380      	movs	r3, #128	; 0x80
     546:	4a04      	ldr	r2, [pc, #16]	; (558 <usart_0_clock_init+0x14>)
     548:	6a11      	ldr	r1, [r2, #32]
     54a:	430b      	orrs	r3, r1
     54c:	6213      	str	r3, [r2, #32]
     54e:	4a03      	ldr	r2, [pc, #12]	; (55c <usart_0_clock_init+0x18>)
     550:	4b03      	ldr	r3, [pc, #12]	; (560 <usart_0_clock_init+0x1c>)
     552:	805a      	strh	r2, [r3, #2]
     554:	4770      	bx	lr
     556:	46c0      	nop			; (mov r8, r8)
     558:	40000400 	.word	0x40000400
     55c:	00004019 	.word	0x00004019
     560:	40000c00 	.word	0x40000c00

00000564 <USART_0_init>:
     564:	b510      	push	{r4, lr}
     566:	4b05      	ldr	r3, [pc, #20]	; (57c <USART_0_init+0x18>)
     568:	4798      	blx	r3
     56a:	2200      	movs	r2, #0
     56c:	4904      	ldr	r1, [pc, #16]	; (580 <USART_0_init+0x1c>)
     56e:	4b05      	ldr	r3, [pc, #20]	; (584 <USART_0_init+0x20>)
     570:	4805      	ldr	r0, [pc, #20]	; (588 <USART_0_init+0x24>)
     572:	4798      	blx	r3
     574:	4b05      	ldr	r3, [pc, #20]	; (58c <USART_0_init+0x28>)
     576:	4798      	blx	r3
     578:	bd10      	pop	{r4, pc}
     57a:	46c0      	nop			; (mov r8, r8)
     57c:	00000545 	.word	0x00000545
     580:	42001c00 	.word	0x42001c00
     584:	00000e59 	.word	0x00000e59
     588:	20000424 	.word	0x20000424
     58c:	00000525 	.word	0x00000525

00000590 <system_init>:
     590:	b5f8      	push	{r3, r4, r5, r6, r7, lr}
     592:	4b6b      	ldr	r3, [pc, #428]	; (740 <system_init+0x1b0>)
     594:	4798      	blx	r3
     596:	2101      	movs	r1, #1
     598:	4c6a      	ldr	r4, [pc, #424]	; (744 <system_init+0x1b4>)
     59a:	4e6b      	ldr	r6, [pc, #428]	; (748 <system_init+0x1b8>)
     59c:	0008      	movs	r0, r1
     59e:	47b0      	blx	r6
     5a0:	0023      	movs	r3, r4
     5a2:	2104      	movs	r1, #4
     5a4:	2501      	movs	r5, #1
     5a6:	3341      	adds	r3, #65	; 0x41
     5a8:	781a      	ldrb	r2, [r3, #0]
     5aa:	27c0      	movs	r7, #192	; 0xc0
     5ac:	438a      	bics	r2, r1
     5ae:	701a      	strb	r2, [r3, #0]
     5b0:	781a      	ldrb	r2, [r3, #0]
     5b2:	05ff      	lsls	r7, r7, #23
     5b4:	43aa      	bics	r2, r5
     5b6:	701a      	strb	r2, [r3, #0]
     5b8:	2380      	movs	r3, #128	; 0x80
     5ba:	011b      	lsls	r3, r3, #4
     5bc:	61bb      	str	r3, [r7, #24]
     5be:	3902      	subs	r1, #2
     5c0:	200b      	movs	r0, #11
     5c2:	47b0      	blx	r6
     5c4:	0022      	movs	r2, r4
     5c6:	324b      	adds	r2, #75	; 0x4b
     5c8:	7813      	ldrb	r3, [r2, #0]
     5ca:	2102      	movs	r1, #2
     5cc:	43ab      	bics	r3, r5
     5ce:	7013      	strb	r3, [r2, #0]
     5d0:	2204      	movs	r2, #4
     5d2:	4b5e      	ldr	r3, [pc, #376]	; (74c <system_init+0x1bc>)
     5d4:	2022      	movs	r0, #34	; 0x22
     5d6:	601a      	str	r2, [r3, #0]
     5d8:	47b0      	blx	r6
     5da:	0022      	movs	r2, r4
     5dc:	32c2      	adds	r2, #194	; 0xc2
     5de:	7813      	ldrb	r3, [r2, #0]
     5e0:	2102      	movs	r1, #2
     5e2:	43ab      	bics	r3, r5
     5e4:	7013      	strb	r3, [r2, #0]
     5e6:	2380      	movs	r3, #128	; 0x80
     5e8:	4a58      	ldr	r2, [pc, #352]	; (74c <system_init+0x1bc>)
     5ea:	009b      	lsls	r3, r3, #2
     5ec:	6013      	str	r3, [r2, #0]
     5ee:	2029      	movs	r0, #41	; 0x29
     5f0:	47b0      	blx	r6
     5f2:	0022      	movs	r2, r4
     5f4:	32c9      	adds	r2, #201	; 0xc9
     5f6:	7813      	ldrb	r3, [r2, #0]
     5f8:	2102      	movs	r1, #2
     5fa:	43ab      	bics	r3, r5
     5fc:	7013      	strb	r3, [r2, #0]
     5fe:	2380      	movs	r3, #128	; 0x80
     600:	055b      	lsls	r3, r3, #21
     602:	61bb      	str	r3, [r7, #24]
     604:	201c      	movs	r0, #28
     606:	47b0      	blx	r6
     608:	0022      	movs	r2, r4
     60a:	325c      	adds	r2, #92	; 0x5c
     60c:	7813      	ldrb	r3, [r2, #0]
     60e:	2102      	movs	r1, #2
     610:	43ab      	bics	r3, r5
     612:	7013      	strb	r3, [r2, #0]
     614:	2380      	movs	r3, #128	; 0x80
     616:	039b      	lsls	r3, r3, #14
     618:	61bb      	str	r3, [r7, #24]
     61a:	2015      	movs	r0, #21
     61c:	47b0      	blx	r6
     61e:	0022      	movs	r2, r4
     620:	3255      	adds	r2, #85	; 0x55
     622:	7813      	ldrb	r3, [r2, #0]
     624:	2102      	movs	r1, #2
     626:	43ab      	bics	r3, r5
     628:	7013      	strb	r3, [r2, #0]
     62a:	2380      	movs	r3, #128	; 0x80
     62c:	4a47      	ldr	r2, [pc, #284]	; (74c <system_init+0x1bc>)
     62e:	00db      	lsls	r3, r3, #3
     630:	6013      	str	r3, [r2, #0]
     632:	202a      	movs	r0, #42	; 0x2a
     634:	47b0      	blx	r6
     636:	0022      	movs	r2, r4
     638:	32ca      	adds	r2, #202	; 0xca
     63a:	7813      	ldrb	r3, [r2, #0]
     63c:	2102      	movs	r1, #2
     63e:	43ab      	bics	r3, r5
     640:	7013      	strb	r3, [r2, #0]
     642:	2280      	movs	r2, #128	; 0x80
     644:	4b41      	ldr	r3, [pc, #260]	; (74c <system_init+0x1bc>)
     646:	0112      	lsls	r2, r2, #4
     648:	601a      	str	r2, [r3, #0]
     64a:	202b      	movs	r0, #43	; 0x2b
     64c:	47b0      	blx	r6
     64e:	0022      	movs	r2, r4
     650:	32cb      	adds	r2, #203	; 0xcb
     652:	7813      	ldrb	r3, [r2, #0]
     654:	0029      	movs	r1, r5
     656:	43ab      	bics	r3, r5
     658:	7013      	strb	r3, [r2, #0]
     65a:	2016      	movs	r0, #22
     65c:	47b0      	blx	r6
     65e:	2180      	movs	r1, #128	; 0x80
     660:	0023      	movs	r3, r4
     662:	2004      	movs	r0, #4
     664:	03c9      	lsls	r1, r1, #15
     666:	6079      	str	r1, [r7, #4]
     668:	3356      	adds	r3, #86	; 0x56
     66a:	781a      	ldrb	r2, [r3, #0]
     66c:	4302      	orrs	r2, r0
     66e:	701a      	strb	r2, [r3, #0]
     670:	61b9      	str	r1, [r7, #24]
     672:	781a      	ldrb	r2, [r3, #0]
     674:	0029      	movs	r1, r5
     676:	43aa      	bics	r2, r5
     678:	701a      	strb	r2, [r3, #0]
     67a:	3013      	adds	r0, #19
     67c:	47b0      	blx	r6
     67e:	0023      	movs	r3, r4
     680:	2104      	movs	r1, #4
     682:	3357      	adds	r3, #87	; 0x57
     684:	781a      	ldrb	r2, [r3, #0]
     686:	2028      	movs	r0, #40	; 0x28
     688:	438a      	bics	r2, r1
     68a:	701a      	strb	r2, [r3, #0]
     68c:	781a      	ldrb	r2, [r3, #0]
     68e:	3902      	subs	r1, #2
     690:	43aa      	bics	r2, r5
     692:	701a      	strb	r2, [r3, #0]
     694:	003b      	movs	r3, r7
     696:	2280      	movs	r2, #128	; 0x80
     698:	3394      	adds	r3, #148	; 0x94
     69a:	0052      	lsls	r2, r2, #1
     69c:	601a      	str	r2, [r3, #0]
     69e:	47b0      	blx	r6
     6a0:	0022      	movs	r2, r4
     6a2:	32c8      	adds	r2, #200	; 0xc8
     6a4:	7813      	ldrb	r3, [r2, #0]
     6a6:	2102      	movs	r1, #2
     6a8:	43ab      	bics	r3, r5
     6aa:	7013      	strb	r3, [r2, #0]
     6ac:	2380      	movs	r3, #128	; 0x80
     6ae:	035b      	lsls	r3, r3, #13
     6b0:	617b      	str	r3, [r7, #20]
     6b2:	2014      	movs	r0, #20
     6b4:	47b0      	blx	r6
     6b6:	0022      	movs	r2, r4
     6b8:	3254      	adds	r2, #84	; 0x54
     6ba:	7813      	ldrb	r3, [r2, #0]
     6bc:	2102      	movs	r1, #2
     6be:	43ab      	bics	r3, r5
     6c0:	7013      	strb	r3, [r2, #0]
     6c2:	2380      	movs	r3, #128	; 0x80
     6c4:	02db      	lsls	r3, r3, #11
     6c6:	617b      	str	r3, [r7, #20]
     6c8:	2012      	movs	r0, #18
     6ca:	47b0      	blx	r6
     6cc:	0022      	movs	r2, r4
     6ce:	3252      	adds	r2, #82	; 0x52
     6d0:	7813      	ldrb	r3, [r2, #0]
     6d2:	2102      	movs	r1, #2
     6d4:	43ab      	bics	r3, r5
     6d6:	7013      	strb	r3, [r2, #0]
     6d8:	2380      	movs	r3, #128	; 0x80
     6da:	01db      	lsls	r3, r3, #7
     6dc:	61bb      	str	r3, [r7, #24]
     6de:	200e      	movs	r0, #14
     6e0:	47b0      	blx	r6
     6e2:	0022      	movs	r2, r4
     6e4:	324e      	adds	r2, #78	; 0x4e
     6e6:	7813      	ldrb	r3, [r2, #0]
     6e8:	201b      	movs	r0, #27
     6ea:	43ab      	bics	r3, r5
     6ec:	0029      	movs	r1, r5
     6ee:	7013      	strb	r3, [r2, #0]
     6f0:	47b0      	blx	r6
     6f2:	2280      	movs	r2, #128	; 0x80
     6f4:	2104      	movs	r1, #4
     6f6:	0512      	lsls	r2, r2, #20
     6f8:	607a      	str	r2, [r7, #4]
     6fa:	345b      	adds	r4, #91	; 0x5b
     6fc:	7823      	ldrb	r3, [r4, #0]
     6fe:	430b      	orrs	r3, r1
     700:	7023      	strb	r3, [r4, #0]
     702:	61ba      	str	r2, [r7, #24]
     704:	7823      	ldrb	r3, [r4, #0]
     706:	43ab      	bics	r3, r5
     708:	7023      	strb	r3, [r4, #0]
     70a:	4b11      	ldr	r3, [pc, #68]	; (750 <system_init+0x1c0>)
     70c:	4798      	blx	r3
     70e:	4b11      	ldr	r3, [pc, #68]	; (754 <system_init+0x1c4>)
     710:	4798      	blx	r3
     712:	4b11      	ldr	r3, [pc, #68]	; (758 <system_init+0x1c8>)
     714:	4798      	blx	r3
     716:	4b11      	ldr	r3, [pc, #68]	; (75c <system_init+0x1cc>)
     718:	4798      	blx	r3
     71a:	4b11      	ldr	r3, [pc, #68]	; (760 <system_init+0x1d0>)
     71c:	4798      	blx	r3
     71e:	2320      	movs	r3, #32
     720:	4a10      	ldr	r2, [pc, #64]	; (764 <system_init+0x1d4>)
     722:	6991      	ldr	r1, [r2, #24]
     724:	430b      	orrs	r3, r1
     726:	6193      	str	r3, [r2, #24]
     728:	4a0f      	ldr	r2, [pc, #60]	; (768 <system_init+0x1d8>)
     72a:	4b10      	ldr	r3, [pc, #64]	; (76c <system_init+0x1dc>)
     72c:	805a      	strh	r2, [r3, #2]
     72e:	4b10      	ldr	r3, [pc, #64]	; (770 <system_init+0x1e0>)
     730:	4798      	blx	r3
     732:	4910      	ldr	r1, [pc, #64]	; (774 <system_init+0x1e4>)
     734:	0002      	movs	r2, r0
     736:	4b10      	ldr	r3, [pc, #64]	; (778 <system_init+0x1e8>)
     738:	4810      	ldr	r0, [pc, #64]	; (77c <system_init+0x1ec>)
     73a:	4798      	blx	r3
     73c:	bdf8      	pop	{r3, r4, r5, r6, r7, pc}
     73e:	46c0      	nop			; (mov r8, r8)
     740:	00000f01 	.word	0x00000f01
     744:	41004400 	.word	0x41004400
     748:	00000251 	.word	0x00000251
     74c:	60000098 	.word	0x60000098
     750:	000002e9 	.word	0x000002e9
     754:	000003ad 	.word	0x000003ad
     758:	00000455 	.word	0x00000455
     75c:	000004fd 	.word	0x000004fd
     760:	00000565 	.word	0x00000565
     764:	40000400 	.word	0x40000400
     768:	00004004 	.word	0x00004004
     76c:	40000c00 	.word	0x40000c00
     770:	00001167 	.word	0x00001167
     774:	40001400 	.word	0x40001400
     778:	00000c59 	.word	0x00000c59
     77c:	20000430 	.word	0x20000430

00000780 <atomic_enter_critical>:
     780:	f3ef 8310 	mrs	r3, PRIMASK
     784:	6003      	str	r3, [r0, #0]
     786:	b672      	cpsid	i
     788:	f3bf 8f5f 	dmb	sy
     78c:	4770      	bx	lr

0000078e <atomic_leave_critical>:
     78e:	f3bf 8f5f 	dmb	sy
     792:	6803      	ldr	r3, [r0, #0]
     794:	f383 8810 	msr	PRIMASK, r3
     798:	4770      	bx	lr
	...

0000079c <process_ext_irq>:
     79c:	2201      	movs	r2, #1
     79e:	b5f8      	push	{r3, r4, r5, r6, r7, lr}
     7a0:	2100      	movs	r1, #0
     7a2:	0016      	movs	r6, r2
     7a4:	27ff      	movs	r7, #255	; 0xff
     7a6:	4d09      	ldr	r5, [pc, #36]	; (7cc <process_ext_irq+0x30>)
     7a8:	686c      	ldr	r4, [r5, #4]
     7aa:	1853      	adds	r3, r2, r1
     7ac:	105b      	asrs	r3, r3, #1
     7ae:	d105      	bne.n	7bc <process_ext_irq+0x20>
     7b0:	4284      	cmp	r4, r0
     7b2:	d104      	bne.n	7be <process_ext_irq+0x22>
     7b4:	682b      	ldr	r3, [r5, #0]
     7b6:	2b00      	cmp	r3, #0
     7b8:	d000      	beq.n	7bc <process_ext_irq+0x20>
     7ba:	4798      	blx	r3
     7bc:	bdf8      	pop	{r3, r4, r5, r6, r7, pc}
     7be:	4284      	cmp	r4, r0
     7c0:	d301      	bcc.n	7c6 <process_ext_irq+0x2a>
     7c2:	003a      	movs	r2, r7
     7c4:	e7f1      	b.n	7aa <process_ext_irq+0xe>
     7c6:	0031      	movs	r1, r6
     7c8:	e7ef      	b.n	7aa <process_ext_irq+0xe>
     7ca:	46c0      	nop			; (mov r8, r8)
     7cc:	20000190 	.word	0x20000190

000007d0 <ext_irq_init>:
     7d0:	2201      	movs	r2, #1
     7d2:	4b05      	ldr	r3, [pc, #20]	; (7e8 <ext_irq_init+0x18>)
     7d4:	4252      	negs	r2, r2
     7d6:	b510      	push	{r4, lr}
     7d8:	605a      	str	r2, [r3, #4]
     7da:	2200      	movs	r2, #0
     7dc:	4803      	ldr	r0, [pc, #12]	; (7ec <ext_irq_init+0x1c>)
     7de:	601a      	str	r2, [r3, #0]
     7e0:	4b03      	ldr	r3, [pc, #12]	; (7f0 <ext_irq_init+0x20>)
     7e2:	4798      	blx	r3
     7e4:	bd10      	pop	{r4, pc}
     7e6:	46c0      	nop			; (mov r8, r8)
     7e8:	20000190 	.word	0x20000190
     7ec:	0000079d 	.word	0x0000079d
     7f0:	00000f41 	.word	0x00000f41

000007f4 <_spi_m_async_io_write>:
     7f4:	b5f8      	push	{r3, r4, r5, r6, r7, lr}
     7f6:	0004      	movs	r4, r0
     7f8:	0016      	movs	r6, r2
     7fa:	1e43      	subs	r3, r0, #1
     7fc:	4198      	sbcs	r0, r3
     7fe:	2228      	movs	r2, #40	; 0x28
     800:	000f      	movs	r7, r1
     802:	32ff      	adds	r2, #255	; 0xff
     804:	b2c0      	uxtb	r0, r0
     806:	4908      	ldr	r1, [pc, #32]	; (828 <_spi_m_async_io_write+0x34>)
     808:	4b08      	ldr	r3, [pc, #32]	; (82c <_spi_m_async_io_write+0x38>)
     80a:	4798      	blx	r3
     80c:	2500      	movs	r5, #0
     80e:	2310      	movs	r3, #16
     810:	0020      	movs	r0, r4
     812:	61a5      	str	r5, [r4, #24]
     814:	6167      	str	r7, [r4, #20]
     816:	61e6      	str	r6, [r4, #28]
     818:	6225      	str	r5, [r4, #32]
     81a:	7223      	strb	r3, [r4, #8]
     81c:	2101      	movs	r1, #1
     81e:	4b04      	ldr	r3, [pc, #16]	; (830 <_spi_m_async_io_write+0x3c>)
     820:	3820      	subs	r0, #32
     822:	4798      	blx	r3
     824:	0028      	movs	r0, r5
     826:	bdf8      	pop	{r3, r4, r5, r6, r7, pc}
     828:	00002e84 	.word	0x00002e84
     82c:	00000ea1 	.word	0x00000ea1
     830:	00001715 	.word	0x00001715

00000834 <_spi_m_async_io_read>:
     834:	b570      	push	{r4, r5, r6, lr}
     836:	0004      	movs	r4, r0
     838:	0016      	movs	r6, r2
     83a:	1e43      	subs	r3, r0, #1
     83c:	4198      	sbcs	r0, r3
     83e:	2206      	movs	r2, #6
     840:	000d      	movs	r5, r1
     842:	32ff      	adds	r2, #255	; 0xff
     844:	b2c0      	uxtb	r0, r0
     846:	490a      	ldr	r1, [pc, #40]	; (870 <_spi_m_async_io_read+0x3c>)
     848:	4b0a      	ldr	r3, [pc, #40]	; (874 <_spi_m_async_io_read+0x40>)
     84a:	4798      	blx	r3
     84c:	61a5      	str	r5, [r4, #24]
     84e:	2310      	movs	r3, #16
     850:	2500      	movs	r5, #0
     852:	61e6      	str	r6, [r4, #28]
     854:	6165      	str	r5, [r4, #20]
     856:	6225      	str	r5, [r4, #32]
     858:	7223      	strb	r3, [r4, #8]
     85a:	3c20      	subs	r4, #32
     85c:	2101      	movs	r1, #1
     85e:	0020      	movs	r0, r4
     860:	4b05      	ldr	r3, [pc, #20]	; (878 <_spi_m_async_io_read+0x44>)
     862:	4798      	blx	r3
     864:	4905      	ldr	r1, [pc, #20]	; (87c <_spi_m_async_io_read+0x48>)
     866:	0020      	movs	r0, r4
     868:	4b05      	ldr	r3, [pc, #20]	; (880 <_spi_m_async_io_read+0x4c>)
     86a:	4798      	blx	r3
     86c:	0028      	movs	r0, r5
     86e:	bd70      	pop	{r4, r5, r6, pc}
     870:	00002e84 	.word	0x00002e84
     874:	00000ea1 	.word	0x00000ea1
     878:	00001749 	.word	0x00001749
     87c:	000001ff 	.word	0x000001ff
     880:	000017c1 	.word	0x000017c1

00000884 <_spi_dev_error>:
     884:	b570      	push	{r4, r5, r6, lr}
     886:	0004      	movs	r4, r0
     888:	4b0b      	ldr	r3, [pc, #44]	; (8b8 <_spi_dev_error+0x34>)
     88a:	000e      	movs	r6, r1
     88c:	2100      	movs	r1, #0
     88e:	1f05      	subs	r5, r0, #4
     890:	4798      	blx	r3
     892:	2100      	movs	r1, #0
     894:	0020      	movs	r0, r4
     896:	4b09      	ldr	r3, [pc, #36]	; (8bc <_spi_dev_error+0x38>)
     898:	4798      	blx	r3
     89a:	0020      	movs	r0, r4
     89c:	4b08      	ldr	r3, [pc, #32]	; (8c0 <_spi_dev_error+0x3c>)
     89e:	2100      	movs	r1, #0
     8a0:	4798      	blx	r3
     8a2:	2300      	movs	r3, #0
     8a4:	3428      	adds	r4, #40	; 0x28
     8a6:	7023      	strb	r3, [r4, #0]
     8a8:	6b6b      	ldr	r3, [r5, #52]	; 0x34
     8aa:	2b00      	cmp	r3, #0
     8ac:	d002      	beq.n	8b4 <_spi_dev_error+0x30>
     8ae:	0031      	movs	r1, r6
     8b0:	0028      	movs	r0, r5
     8b2:	4798      	blx	r3
     8b4:	bd70      	pop	{r4, r5, r6, pc}
     8b6:	46c0      	nop			; (mov r8, r8)
     8b8:	00001715 	.word	0x00001715
     8bc:	00001749 	.word	0x00001749
     8c0:	00001789 	.word	0x00001789

000008c4 <_spi_dev_complete>:
     8c4:	6c03      	ldr	r3, [r0, #64]	; 0x40
     8c6:	6bc2      	ldr	r2, [r0, #60]	; 0x3c
     8c8:	b570      	push	{r4, r5, r6, lr}
     8ca:	0004      	movs	r4, r0
     8cc:	1f05      	subs	r5, r0, #4
     8ce:	4293      	cmp	r3, r2
     8d0:	d30a      	bcc.n	8e8 <_spi_dev_complete+0x24>
     8d2:	4b06      	ldr	r3, [pc, #24]	; (8ec <_spi_dev_complete+0x28>)
     8d4:	2100      	movs	r1, #0
     8d6:	4798      	blx	r3
     8d8:	2300      	movs	r3, #0
     8da:	3428      	adds	r4, #40	; 0x28
     8dc:	7023      	strb	r3, [r4, #0]
     8de:	6b2b      	ldr	r3, [r5, #48]	; 0x30
     8e0:	2b00      	cmp	r3, #0
     8e2:	d001      	beq.n	8e8 <_spi_dev_complete+0x24>
     8e4:	0028      	movs	r0, r5
     8e6:	4798      	blx	r3
     8e8:	bd70      	pop	{r4, r5, r6, pc}
     8ea:	46c0      	nop			; (mov r8, r8)
     8ec:	00001789 	.word	0x00001789

000008f0 <_spi_dev_rx>:
     8f0:	b570      	push	{r4, r5, r6, lr}
     8f2:	1f05      	subs	r5, r0, #4
     8f4:	6bee      	ldr	r6, [r5, #60]	; 0x3c
     8f6:	0004      	movs	r4, r0
     8f8:	491d      	ldr	r1, [pc, #116]	; (970 <_spi_dev_rx+0x80>)
     8fa:	2e00      	cmp	r6, #0
     8fc:	d020      	beq.n	940 <_spi_dev_rx+0x50>
     8fe:	7900      	ldrb	r0, [r0, #4]
     900:	6c6b      	ldr	r3, [r5, #68]	; 0x44
     902:	2801      	cmp	r0, #1
     904:	d814      	bhi.n	930 <_spi_dev_rx+0x40>
     906:	1c58      	adds	r0, r3, #1
     908:	6468      	str	r0, [r5, #68]	; 0x44
     90a:	0020      	movs	r0, r4
     90c:	18f6      	adds	r6, r6, r3
     90e:	4788      	blx	r1
     910:	7030      	strb	r0, [r6, #0]
     912:	6c6b      	ldr	r3, [r5, #68]	; 0x44
     914:	6c2a      	ldr	r2, [r5, #64]	; 0x40
     916:	4293      	cmp	r3, r2
     918:	d21c      	bcs.n	954 <_spi_dev_rx+0x64>
     91a:	6ba9      	ldr	r1, [r5, #56]	; 0x38
     91c:	4a15      	ldr	r2, [pc, #84]	; (974 <_spi_dev_rx+0x84>)
     91e:	2900      	cmp	r1, #0
     920:	d016      	beq.n	950 <_spi_dev_rx+0x60>
     922:	7920      	ldrb	r0, [r4, #4]
     924:	2801      	cmp	r0, #1
     926:	d810      	bhi.n	94a <_spi_dev_rx+0x5a>
     928:	5cc9      	ldrb	r1, [r1, r3]
     92a:	0020      	movs	r0, r4
     92c:	4790      	blx	r2
     92e:	bd70      	pop	{r4, r5, r6, pc}
     930:	1c58      	adds	r0, r3, #1
     932:	6468      	str	r0, [r5, #68]	; 0x44
     934:	005b      	lsls	r3, r3, #1
     936:	0020      	movs	r0, r4
     938:	18f6      	adds	r6, r6, r3
     93a:	4788      	blx	r1
     93c:	8030      	strh	r0, [r6, #0]
     93e:	e7e8      	b.n	912 <_spi_dev_rx+0x22>
     940:	4788      	blx	r1
     942:	6c6b      	ldr	r3, [r5, #68]	; 0x44
     944:	3301      	adds	r3, #1
     946:	646b      	str	r3, [r5, #68]	; 0x44
     948:	e7e3      	b.n	912 <_spi_dev_rx+0x22>
     94a:	005b      	lsls	r3, r3, #1
     94c:	5a59      	ldrh	r1, [r3, r1]
     94e:	e7ec      	b.n	92a <_spi_dev_rx+0x3a>
     950:	88e1      	ldrh	r1, [r4, #6]
     952:	e7ea      	b.n	92a <_spi_dev_rx+0x3a>
     954:	0020      	movs	r0, r4
     956:	4b08      	ldr	r3, [pc, #32]	; (978 <_spi_dev_rx+0x88>)
     958:	2100      	movs	r1, #0
     95a:	4798      	blx	r3
     95c:	2300      	movs	r3, #0
     95e:	3428      	adds	r4, #40	; 0x28
     960:	7023      	strb	r3, [r4, #0]
     962:	6b2b      	ldr	r3, [r5, #48]	; 0x30
     964:	2b00      	cmp	r3, #0
     966:	d0e2      	beq.n	92e <_spi_dev_rx+0x3e>
     968:	0028      	movs	r0, r5
     96a:	4798      	blx	r3
     96c:	e7df      	b.n	92e <_spi_dev_rx+0x3e>
     96e:	46c0      	nop			; (mov r8, r8)
     970:	000017f1 	.word	0x000017f1
     974:	000017c1 	.word	0x000017c1
     978:	00001749 	.word	0x00001749

0000097c <_spi_dev_tx>:
     97c:	b570      	push	{r4, r5, r6, lr}
     97e:	7903      	ldrb	r3, [r0, #4]
     980:	0005      	movs	r5, r0
     982:	1f04      	subs	r4, r0, #4
     984:	4a0e      	ldr	r2, [pc, #56]	; (9c0 <_spi_dev_tx+0x44>)
     986:	2b01      	cmp	r3, #1
     988:	d813      	bhi.n	9b2 <_spi_dev_tx+0x36>
     98a:	6c63      	ldr	r3, [r4, #68]	; 0x44
     98c:	1c59      	adds	r1, r3, #1
     98e:	6461      	str	r1, [r4, #68]	; 0x44
     990:	6ba1      	ldr	r1, [r4, #56]	; 0x38
     992:	5cc9      	ldrb	r1, [r1, r3]
     994:	0028      	movs	r0, r5
     996:	4790      	blx	r2
     998:	6c62      	ldr	r2, [r4, #68]	; 0x44
     99a:	6c23      	ldr	r3, [r4, #64]	; 0x40
     99c:	429a      	cmp	r2, r3
     99e:	d107      	bne.n	9b0 <_spi_dev_tx+0x34>
     9a0:	2100      	movs	r1, #0
     9a2:	4b08      	ldr	r3, [pc, #32]	; (9c4 <_spi_dev_tx+0x48>)
     9a4:	0028      	movs	r0, r5
     9a6:	4798      	blx	r3
     9a8:	2101      	movs	r1, #1
     9aa:	0028      	movs	r0, r5
     9ac:	4b06      	ldr	r3, [pc, #24]	; (9c8 <_spi_dev_tx+0x4c>)
     9ae:	4798      	blx	r3
     9b0:	bd70      	pop	{r4, r5, r6, pc}
     9b2:	6c63      	ldr	r3, [r4, #68]	; 0x44
     9b4:	1c59      	adds	r1, r3, #1
     9b6:	6461      	str	r1, [r4, #68]	; 0x44
     9b8:	6ba1      	ldr	r1, [r4, #56]	; 0x38
     9ba:	005b      	lsls	r3, r3, #1
     9bc:	5a59      	ldrh	r1, [r3, r1]
     9be:	e7e9      	b.n	994 <_spi_dev_tx+0x18>
     9c0:	000017c1 	.word	0x000017c1
     9c4:	00001715 	.word	0x00001715
     9c8:	00001789 	.word	0x00001789

000009cc <spi_m_async_init>:
     9cc:	b570      	push	{r4, r5, r6, lr}
     9ce:	0004      	movs	r4, r0
     9d0:	000e      	movs	r6, r1
     9d2:	2800      	cmp	r0, #0
     9d4:	d003      	beq.n	9de <spi_m_async_init+0x12>
     9d6:	0008      	movs	r0, r1
     9d8:	1e43      	subs	r3, r0, #1
     9da:	4198      	sbcs	r0, r3
     9dc:	b2c0      	uxtb	r0, r0
     9de:	4911      	ldr	r1, [pc, #68]	; (a24 <spi_m_async_init+0x58>)
     9e0:	4b11      	ldr	r3, [pc, #68]	; (a28 <spi_m_async_init+0x5c>)
     9e2:	22a5      	movs	r2, #165	; 0xa5
     9e4:	1d25      	adds	r5, r4, #4
     9e6:	4798      	blx	r3
     9e8:	6066      	str	r6, [r4, #4]
     9ea:	0031      	movs	r1, r6
     9ec:	0028      	movs	r0, r5
     9ee:	4b0f      	ldr	r3, [pc, #60]	; (a2c <spi_m_async_init+0x60>)
     9f0:	4798      	blx	r3
     9f2:	2800      	cmp	r0, #0
     9f4:	db15      	blt.n	a22 <spi_m_async_init+0x56>
     9f6:	4e0e      	ldr	r6, [pc, #56]	; (a30 <spi_m_async_init+0x64>)
     9f8:	4a0e      	ldr	r2, [pc, #56]	; (a34 <spi_m_async_init+0x68>)
     9fa:	2100      	movs	r1, #0
     9fc:	0028      	movs	r0, r5
     9fe:	47b0      	blx	r6
     a00:	4a0d      	ldr	r2, [pc, #52]	; (a38 <spi_m_async_init+0x6c>)
     a02:	2101      	movs	r1, #1
     a04:	0028      	movs	r0, r5
     a06:	47b0      	blx	r6
     a08:	4a0c      	ldr	r2, [pc, #48]	; (a3c <spi_m_async_init+0x70>)
     a0a:	2102      	movs	r1, #2
     a0c:	0028      	movs	r0, r5
     a0e:	47b0      	blx	r6
     a10:	4a0b      	ldr	r2, [pc, #44]	; (a40 <spi_m_async_init+0x74>)
     a12:	2103      	movs	r1, #3
     a14:	0028      	movs	r0, r5
     a16:	47b0      	blx	r6
     a18:	2000      	movs	r0, #0
     a1a:	4b0a      	ldr	r3, [pc, #40]	; (a44 <spi_m_async_init+0x78>)
     a1c:	62a3      	str	r3, [r4, #40]	; 0x28
     a1e:	4b0a      	ldr	r3, [pc, #40]	; (a48 <spi_m_async_init+0x7c>)
     a20:	6263      	str	r3, [r4, #36]	; 0x24
     a22:	bd70      	pop	{r4, r5, r6, pc}
     a24:	00002e84 	.word	0x00002e84
     a28:	00000ea1 	.word	0x00000ea1
     a2c:	00001601 	.word	0x00001601
     a30:	0000181d 	.word	0x0000181d
     a34:	0000097d 	.word	0x0000097d
     a38:	000008f1 	.word	0x000008f1
     a3c:	000008c5 	.word	0x000008c5
     a40:	00000885 	.word	0x00000885
     a44:	00000835 	.word	0x00000835
     a48:	000007f5 	.word	0x000007f5

00000a4c <spi_m_async_enable>:
     a4c:	b510      	push	{r4, lr}
     a4e:	0004      	movs	r4, r0
     a50:	1e43      	subs	r3, r0, #1
     a52:	4198      	sbcs	r0, r3
     a54:	22c1      	movs	r2, #193	; 0xc1
     a56:	4904      	ldr	r1, [pc, #16]	; (a68 <spi_m_async_enable+0x1c>)
     a58:	b2c0      	uxtb	r0, r0
     a5a:	4b04      	ldr	r3, [pc, #16]	; (a6c <spi_m_async_enable+0x20>)
     a5c:	4798      	blx	r3
     a5e:	1d20      	adds	r0, r4, #4
     a60:	4b03      	ldr	r3, [pc, #12]	; (a70 <spi_m_async_enable+0x24>)
     a62:	4798      	blx	r3
     a64:	bd10      	pop	{r4, pc}
     a66:	46c0      	nop			; (mov r8, r8)
     a68:	00002e84 	.word	0x00002e84
     a6c:	00000ea1 	.word	0x00000ea1
     a70:	0000164d 	.word	0x0000164d

00000a74 <spi_m_async_disable>:
     a74:	b510      	push	{r4, lr}
     a76:	0004      	movs	r4, r0
     a78:	1e43      	subs	r3, r0, #1
     a7a:	4198      	sbcs	r0, r3
     a7c:	22c7      	movs	r2, #199	; 0xc7
     a7e:	3404      	adds	r4, #4
     a80:	b2c0      	uxtb	r0, r0
     a82:	4907      	ldr	r1, [pc, #28]	; (aa0 <spi_m_async_disable+0x2c>)
     a84:	4b07      	ldr	r3, [pc, #28]	; (aa4 <spi_m_async_disable+0x30>)
     a86:	4798      	blx	r3
     a88:	2100      	movs	r1, #0
     a8a:	0020      	movs	r0, r4
     a8c:	4b06      	ldr	r3, [pc, #24]	; (aa8 <spi_m_async_disable+0x34>)
     a8e:	4798      	blx	r3
     a90:	2100      	movs	r1, #0
     a92:	0020      	movs	r0, r4
     a94:	4b05      	ldr	r3, [pc, #20]	; (aac <spi_m_async_disable+0x38>)
     a96:	4798      	blx	r3
     a98:	0020      	movs	r0, r4
     a9a:	4b05      	ldr	r3, [pc, #20]	; (ab0 <spi_m_async_disable+0x3c>)
     a9c:	4798      	blx	r3
     a9e:	bd10      	pop	{r4, pc}
     aa0:	00002e84 	.word	0x00002e84
     aa4:	00000ea1 	.word	0x00000ea1
     aa8:	00001715 	.word	0x00001715
     aac:	00001749 	.word	0x00001749
     ab0:	00001695 	.word	0x00001695

00000ab4 <spi_m_async_set_mode>:
     ab4:	b570      	push	{r4, r5, r6, lr}
     ab6:	0004      	movs	r4, r0
     ab8:	1e43      	subs	r3, r0, #1
     aba:	4198      	sbcs	r0, r3
     abc:	000d      	movs	r5, r1
     abe:	4b09      	ldr	r3, [pc, #36]	; (ae4 <spi_m_async_set_mode+0x30>)
     ac0:	b2c0      	uxtb	r0, r0
     ac2:	22d9      	movs	r2, #217	; 0xd9
     ac4:	4908      	ldr	r1, [pc, #32]	; (ae8 <spi_m_async_set_mode+0x34>)
     ac6:	4798      	blx	r3
     ac8:	0023      	movs	r3, r4
     aca:	332c      	adds	r3, #44	; 0x2c
     acc:	781b      	ldrb	r3, [r3, #0]
     ace:	06db      	lsls	r3, r3, #27
     ad0:	d404      	bmi.n	adc <spi_m_async_set_mode+0x28>
     ad2:	1d20      	adds	r0, r4, #4
     ad4:	0029      	movs	r1, r5
     ad6:	4b05      	ldr	r3, [pc, #20]	; (aec <spi_m_async_set_mode+0x38>)
     ad8:	4798      	blx	r3
     ada:	bd70      	pop	{r4, r5, r6, pc}
     adc:	2004      	movs	r0, #4
     ade:	4240      	negs	r0, r0
     ae0:	e7fb      	b.n	ada <spi_m_async_set_mode+0x26>
     ae2:	46c0      	nop			; (mov r8, r8)
     ae4:	00000ea1 	.word	0x00000ea1
     ae8:	00002e84 	.word	0x00002e84
     aec:	000016e1 	.word	0x000016e1

00000af0 <spi_m_async_transfer>:
     af0:	b5f8      	push	{r3, r4, r5, r6, r7, lr}
     af2:	0004      	movs	r4, r0
     af4:	001d      	movs	r5, r3
     af6:	0017      	movs	r7, r2
     af8:	1e43      	subs	r3, r0, #1
     afa:	4198      	sbcs	r0, r3
     afc:	229c      	movs	r2, #156	; 0x9c
     afe:	000e      	movs	r6, r1
     b00:	b2c0      	uxtb	r0, r0
     b02:	0052      	lsls	r2, r2, #1
     b04:	4910      	ldr	r1, [pc, #64]	; (b48 <spi_m_async_transfer+0x58>)
     b06:	4b11      	ldr	r3, [pc, #68]	; (b4c <spi_m_async_transfer+0x5c>)
     b08:	4798      	blx	r3
     b0a:	2300      	movs	r3, #0
     b0c:	6463      	str	r3, [r4, #68]	; 0x44
     b0e:	0023      	movs	r3, r4
     b10:	2210      	movs	r2, #16
     b12:	6425      	str	r5, [r4, #64]	; 0x40
     b14:	332c      	adds	r3, #44	; 0x2c
     b16:	1d25      	adds	r5, r4, #4
     b18:	63e7      	str	r7, [r4, #60]	; 0x3c
     b1a:	63a6      	str	r6, [r4, #56]	; 0x38
     b1c:	2101      	movs	r1, #1
     b1e:	701a      	strb	r2, [r3, #0]
     b20:	0028      	movs	r0, r5
     b22:	4b0b      	ldr	r3, [pc, #44]	; (b50 <spi_m_async_transfer+0x60>)
     b24:	4798      	blx	r3
     b26:	4a0b      	ldr	r2, [pc, #44]	; (b54 <spi_m_async_transfer+0x64>)
     b28:	2e00      	cmp	r6, #0
     b2a:	d00b      	beq.n	b44 <spi_m_async_transfer+0x54>
     b2c:	7a21      	ldrb	r1, [r4, #8]
     b2e:	6c63      	ldr	r3, [r4, #68]	; 0x44
     b30:	2901      	cmp	r1, #1
     b32:	d804      	bhi.n	b3e <spi_m_async_transfer+0x4e>
     b34:	5cf1      	ldrb	r1, [r6, r3]
     b36:	0028      	movs	r0, r5
     b38:	4790      	blx	r2
     b3a:	2000      	movs	r0, #0
     b3c:	bdf8      	pop	{r3, r4, r5, r6, r7, pc}
     b3e:	005b      	lsls	r3, r3, #1
     b40:	5b99      	ldrh	r1, [r3, r6]
     b42:	e7f8      	b.n	b36 <spi_m_async_transfer+0x46>
     b44:	8961      	ldrh	r1, [r4, #10]
     b46:	e7f6      	b.n	b36 <spi_m_async_transfer+0x46>
     b48:	00002e84 	.word	0x00002e84
     b4c:	00000ea1 	.word	0x00000ea1
     b50:	00001749 	.word	0x00001749
     b54:	000017c1 	.word	0x000017c1

00000b58 <spi_m_async_register_callback>:
     b58:	2300      	movs	r3, #0
     b5a:	b570      	push	{r4, r5, r6, lr}
     b5c:	0004      	movs	r4, r0
     b5e:	000e      	movs	r6, r1
     b60:	0015      	movs	r5, r2
     b62:	4298      	cmp	r0, r3
     b64:	d003      	beq.n	b6e <spi_m_async_register_callback+0x16>
     b66:	2201      	movs	r2, #1
     b68:	428a      	cmp	r2, r1
     b6a:	415b      	adcs	r3, r3
     b6c:	b2d8      	uxtb	r0, r3
     b6e:	2264      	movs	r2, #100	; 0x64
     b70:	4908      	ldr	r1, [pc, #32]	; (b94 <spi_m_async_register_callback+0x3c>)
     b72:	32ff      	adds	r2, #255	; 0xff
     b74:	4b08      	ldr	r3, [pc, #32]	; (b98 <spi_m_async_register_callback+0x40>)
     b76:	4798      	blx	r3
     b78:	2e00      	cmp	r6, #0
     b7a:	d101      	bne.n	b80 <spi_m_async_register_callback+0x28>
     b7c:	6325      	str	r5, [r4, #48]	; 0x30
     b7e:	bd70      	pop	{r4, r5, r6, pc}
     b80:	6365      	str	r5, [r4, #52]	; 0x34
     b82:	1e6a      	subs	r2, r5, #1
     b84:	4195      	sbcs	r5, r2
     b86:	1d20      	adds	r0, r4, #4
     b88:	b2ea      	uxtb	r2, r5
     b8a:	2103      	movs	r1, #3
     b8c:	4b03      	ldr	r3, [pc, #12]	; (b9c <spi_m_async_register_callback+0x44>)
     b8e:	4798      	blx	r3
     b90:	e7f5      	b.n	b7e <spi_m_async_register_callback+0x26>
     b92:	46c0      	nop			; (mov r8, r8)
     b94:	00002e84 	.word	0x00002e84
     b98:	00000ea1 	.word	0x00000ea1
     b9c:	00001851 	.word	0x00001851

00000ba0 <timer_add_timer_task>:
     ba0:	b5f7      	push	{r0, r1, r2, r4, r5, r6, r7, lr}
     ba2:	6805      	ldr	r5, [r0, #0]
     ba4:	2d00      	cmp	r5, #0
     ba6:	d102      	bne.n	bae <timer_add_timer_task+0xe>
     ba8:	4b11      	ldr	r3, [pc, #68]	; (bf0 <timer_add_timer_task+0x50>)
     baa:	4798      	blx	r3
     bac:	bdf7      	pop	{r0, r1, r2, r4, r5, r6, r7, pc}
     bae:	2601      	movs	r6, #1
     bb0:	002c      	movs	r4, r5
     bb2:	2700      	movs	r7, #0
     bb4:	688b      	ldr	r3, [r1, #8]
     bb6:	9300      	str	r3, [sp, #0]
     bb8:	1ab3      	subs	r3, r6, r2
     bba:	9301      	str	r3, [sp, #4]
     bbc:	68a6      	ldr	r6, [r4, #8]
     bbe:	6863      	ldr	r3, [r4, #4]
     bc0:	46b4      	mov	ip, r6
     bc2:	4293      	cmp	r3, r2
     bc4:	d80d      	bhi.n	be2 <timer_add_timer_task+0x42>
     bc6:	4463      	add	r3, ip
     bc8:	1a9b      	subs	r3, r3, r2
     bca:	9e00      	ldr	r6, [sp, #0]
     bcc:	42b3      	cmp	r3, r6
     bce:	d20c      	bcs.n	bea <timer_add_timer_task+0x4a>
     bd0:	6823      	ldr	r3, [r4, #0]
     bd2:	0027      	movs	r7, r4
     bd4:	2b00      	cmp	r3, #0
     bd6:	d102      	bne.n	bde <timer_add_timer_task+0x3e>
     bd8:	0038      	movs	r0, r7
     bda:	4b06      	ldr	r3, [pc, #24]	; (bf4 <timer_add_timer_task+0x54>)
     bdc:	e7e5      	b.n	baa <timer_add_timer_task+0xa>
     bde:	001c      	movs	r4, r3
     be0:	e7ec      	b.n	bbc <timer_add_timer_task+0x1c>
     be2:	9e01      	ldr	r6, [sp, #4]
     be4:	18f3      	adds	r3, r6, r3
     be6:	4463      	add	r3, ip
     be8:	e7ef      	b.n	bca <timer_add_timer_task+0x2a>
     bea:	42a5      	cmp	r5, r4
     bec:	d1f4      	bne.n	bd8 <timer_add_timer_task+0x38>
     bee:	e7db      	b.n	ba8 <timer_add_timer_task+0x8>
     bf0:	00000eb9 	.word	0x00000eb9
     bf4:	00000ee9 	.word	0x00000ee9

00000bf8 <timer_process_counted>:
     bf8:	b5f8      	push	{r3, r4, r5, r6, r7, lr}
     bfa:	6903      	ldr	r3, [r0, #16]
     bfc:	0005      	movs	r5, r0
     bfe:	1c5e      	adds	r6, r3, #1
     c00:	7e03      	ldrb	r3, [r0, #24]
     c02:	6944      	ldr	r4, [r0, #20]
     c04:	6106      	str	r6, [r0, #16]
     c06:	07db      	lsls	r3, r3, #31
     c08:	d402      	bmi.n	c10 <timer_process_counted+0x18>
     c0a:	7e03      	ldrb	r3, [r0, #24]
     c0c:	079b      	lsls	r3, r3, #30
     c0e:	d517      	bpl.n	c40 <timer_process_counted+0x48>
     c10:	2302      	movs	r3, #2
     c12:	7e2a      	ldrb	r2, [r5, #24]
     c14:	4313      	orrs	r3, r2
     c16:	762b      	strb	r3, [r5, #24]
     c18:	bdf8      	pop	{r3, r4, r5, r6, r7, pc}
     c1a:	002f      	movs	r7, r5
     c1c:	3714      	adds	r7, #20
     c1e:	4b0c      	ldr	r3, [pc, #48]	; (c50 <timer_process_counted+0x58>)
     c20:	0038      	movs	r0, r7
     c22:	4798      	blx	r3
     c24:	7c23      	ldrb	r3, [r4, #16]
     c26:	2b01      	cmp	r3, #1
     c28:	d105      	bne.n	c36 <timer_process_counted+0x3e>
     c2a:	6066      	str	r6, [r4, #4]
     c2c:	0032      	movs	r2, r6
     c2e:	0021      	movs	r1, r4
     c30:	0038      	movs	r0, r7
     c32:	4b08      	ldr	r3, [pc, #32]	; (c54 <timer_process_counted+0x5c>)
     c34:	4798      	blx	r3
     c36:	696f      	ldr	r7, [r5, #20]
     c38:	68e3      	ldr	r3, [r4, #12]
     c3a:	0020      	movs	r0, r4
     c3c:	4798      	blx	r3
     c3e:	003c      	movs	r4, r7
     c40:	2c00      	cmp	r4, #0
     c42:	d0e9      	beq.n	c18 <timer_process_counted+0x20>
     c44:	6863      	ldr	r3, [r4, #4]
     c46:	68a2      	ldr	r2, [r4, #8]
     c48:	1af3      	subs	r3, r6, r3
     c4a:	4293      	cmp	r3, r2
     c4c:	d2e5      	bcs.n	c1a <timer_process_counted+0x22>
     c4e:	e7e3      	b.n	c18 <timer_process_counted+0x20>
     c50:	00000ef1 	.word	0x00000ef1
     c54:	00000ba1 	.word	0x00000ba1

00000c58 <timer_init>:
     c58:	b570      	push	{r4, r5, r6, lr}
     c5a:	0004      	movs	r4, r0
     c5c:	000d      	movs	r5, r1
     c5e:	2800      	cmp	r0, #0
     c60:	d003      	beq.n	c6a <timer_init+0x12>
     c62:	0008      	movs	r0, r1
     c64:	1e43      	subs	r3, r0, #1
     c66:	4198      	sbcs	r0, r3
     c68:	b2c0      	uxtb	r0, r0
     c6a:	223b      	movs	r2, #59	; 0x3b
     c6c:	4905      	ldr	r1, [pc, #20]	; (c84 <timer_init+0x2c>)
     c6e:	4b06      	ldr	r3, [pc, #24]	; (c88 <timer_init+0x30>)
     c70:	4798      	blx	r3
     c72:	0029      	movs	r1, r5
     c74:	0020      	movs	r0, r4
     c76:	4b05      	ldr	r3, [pc, #20]	; (c8c <timer_init+0x34>)
     c78:	4798      	blx	r3
     c7a:	2000      	movs	r0, #0
     c7c:	4b04      	ldr	r3, [pc, #16]	; (c90 <timer_init+0x38>)
     c7e:	6120      	str	r0, [r4, #16]
     c80:	6023      	str	r3, [r4, #0]
     c82:	bd70      	pop	{r4, r5, r6, pc}
     c84:	00002ea1 	.word	0x00002ea1
     c88:	00000ea1 	.word	0x00000ea1
     c8c:	00001099 	.word	0x00001099
     c90:	00000bf9 	.word	0x00000bf9

00000c94 <timer_start>:
     c94:	b570      	push	{r4, r5, r6, lr}
     c96:	0005      	movs	r5, r0
     c98:	1e43      	subs	r3, r0, #1
     c9a:	4198      	sbcs	r0, r3
     c9c:	2253      	movs	r2, #83	; 0x53
     c9e:	b2c0      	uxtb	r0, r0
     ca0:	4907      	ldr	r1, [pc, #28]	; (cc0 <timer_start+0x2c>)
     ca2:	4b08      	ldr	r3, [pc, #32]	; (cc4 <timer_start+0x30>)
     ca4:	4798      	blx	r3
     ca6:	0028      	movs	r0, r5
     ca8:	4b07      	ldr	r3, [pc, #28]	; (cc8 <timer_start+0x34>)
     caa:	4798      	blx	r3
     cac:	1e04      	subs	r4, r0, #0
     cae:	d104      	bne.n	cba <timer_start+0x26>
     cb0:	0028      	movs	r0, r5
     cb2:	4b06      	ldr	r3, [pc, #24]	; (ccc <timer_start+0x38>)
     cb4:	4798      	blx	r3
     cb6:	0020      	movs	r0, r4
     cb8:	bd70      	pop	{r4, r5, r6, pc}
     cba:	2011      	movs	r0, #17
     cbc:	4240      	negs	r0, r0
     cbe:	e7fb      	b.n	cb8 <timer_start+0x24>
     cc0:	00002ea1 	.word	0x00002ea1
     cc4:	00000ea1 	.word	0x00000ea1
     cc8:	0000114d 	.word	0x0000114d
     ccc:	000010ed 	.word	0x000010ed

00000cd0 <timer_set_clock_cycles_per_tick>:
     cd0:	b570      	push	{r4, r5, r6, lr}
     cd2:	0004      	movs	r4, r0
     cd4:	1e43      	subs	r3, r0, #1
     cd6:	4198      	sbcs	r0, r3
     cd8:	000d      	movs	r5, r1
     cda:	226f      	movs	r2, #111	; 0x6f
     cdc:	b2c0      	uxtb	r0, r0
     cde:	4904      	ldr	r1, [pc, #16]	; (cf0 <timer_set_clock_cycles_per_tick+0x20>)
     ce0:	4b04      	ldr	r3, [pc, #16]	; (cf4 <timer_set_clock_cycles_per_tick+0x24>)
     ce2:	4798      	blx	r3
     ce4:	0029      	movs	r1, r5
     ce6:	0020      	movs	r0, r4
     ce8:	4b03      	ldr	r3, [pc, #12]	; (cf8 <timer_set_clock_cycles_per_tick+0x28>)
     cea:	4798      	blx	r3
     cec:	2000      	movs	r0, #0
     cee:	bd70      	pop	{r4, r5, r6, pc}
     cf0:	00002ea1 	.word	0x00002ea1
     cf4:	00000ea1 	.word	0x00000ea1
     cf8:	00001139 	.word	0x00001139

00000cfc <timer_add_task>:
     cfc:	b5f0      	push	{r4, r5, r6, r7, lr}
     cfe:	0004      	movs	r4, r0
     d00:	b085      	sub	sp, #20
     d02:	000e      	movs	r6, r1
     d04:	2800      	cmp	r0, #0
     d06:	d003      	beq.n	d10 <timer_add_task+0x14>
     d08:	0008      	movs	r0, r1
     d0a:	1e43      	subs	r3, r0, #1
     d0c:	4198      	sbcs	r0, r3
     d0e:	b2c0      	uxtb	r0, r0
     d10:	2701      	movs	r7, #1
     d12:	227a      	movs	r2, #122	; 0x7a
     d14:	491a      	ldr	r1, [pc, #104]	; (d80 <timer_add_task+0x84>)
     d16:	4b1b      	ldr	r3, [pc, #108]	; (d84 <timer_add_task+0x88>)
     d18:	4798      	blx	r3
     d1a:	7e23      	ldrb	r3, [r4, #24]
     d1c:	0031      	movs	r1, r6
     d1e:	433b      	orrs	r3, r7
     d20:	7623      	strb	r3, [r4, #24]
     d22:	0023      	movs	r3, r4
     d24:	3314      	adds	r3, #20
     d26:	9301      	str	r3, [sp, #4]
     d28:	0018      	movs	r0, r3
     d2a:	4b17      	ldr	r3, [pc, #92]	; (d88 <timer_add_task+0x8c>)
     d2c:	4798      	blx	r3
     d2e:	1e05      	subs	r5, r0, #0
     d30:	d00c      	beq.n	d4c <timer_add_task+0x50>
     d32:	7e23      	ldrb	r3, [r4, #24]
     d34:	227f      	movs	r2, #127	; 0x7f
     d36:	43bb      	bics	r3, r7
     d38:	7623      	strb	r3, [r4, #24]
     d3a:	4911      	ldr	r1, [pc, #68]	; (d80 <timer_add_task+0x84>)
     d3c:	2000      	movs	r0, #0
     d3e:	4b11      	ldr	r3, [pc, #68]	; (d84 <timer_add_task+0x88>)
     d40:	2512      	movs	r5, #18
     d42:	4798      	blx	r3
     d44:	426d      	negs	r5, r5
     d46:	0028      	movs	r0, r5
     d48:	b005      	add	sp, #20
     d4a:	bdf0      	pop	{r4, r5, r6, r7, pc}
     d4c:	6922      	ldr	r2, [r4, #16]
     d4e:	0031      	movs	r1, r6
     d50:	6072      	str	r2, [r6, #4]
     d52:	2602      	movs	r6, #2
     d54:	4b0d      	ldr	r3, [pc, #52]	; (d8c <timer_add_task+0x90>)
     d56:	9801      	ldr	r0, [sp, #4]
     d58:	4798      	blx	r3
     d5a:	7e23      	ldrb	r3, [r4, #24]
     d5c:	43bb      	bics	r3, r7
     d5e:	7623      	strb	r3, [r4, #24]
     d60:	7e23      	ldrb	r3, [r4, #24]
     d62:	4233      	tst	r3, r6
     d64:	d0ef      	beq.n	d46 <timer_add_task+0x4a>
     d66:	a803      	add	r0, sp, #12
     d68:	4b09      	ldr	r3, [pc, #36]	; (d90 <timer_add_task+0x94>)
     d6a:	4798      	blx	r3
     d6c:	7e23      	ldrb	r3, [r4, #24]
     d6e:	0020      	movs	r0, r4
     d70:	43b3      	bics	r3, r6
     d72:	7623      	strb	r3, [r4, #24]
     d74:	4b07      	ldr	r3, [pc, #28]	; (d94 <timer_add_task+0x98>)
     d76:	4798      	blx	r3
     d78:	a803      	add	r0, sp, #12
     d7a:	4b07      	ldr	r3, [pc, #28]	; (d98 <timer_add_task+0x9c>)
     d7c:	4798      	blx	r3
     d7e:	e7e2      	b.n	d46 <timer_add_task+0x4a>
     d80:	00002ea1 	.word	0x00002ea1
     d84:	00000ea1 	.word	0x00000ea1
     d88:	00000ea9 	.word	0x00000ea9
     d8c:	00000ba1 	.word	0x00000ba1
     d90:	00000781 	.word	0x00000781
     d94:	00001165 	.word	0x00001165
     d98:	0000078f 	.word	0x0000078f

00000d9c <usart_sync_write>:
     d9c:	b5f8      	push	{r3, r4, r5, r6, r7, lr}
     d9e:	0004      	movs	r4, r0
     da0:	000e      	movs	r6, r1
     da2:	0017      	movs	r7, r2
     da4:	2800      	cmp	r0, #0
     da6:	d004      	beq.n	db2 <usart_sync_write+0x16>
     da8:	1e08      	subs	r0, r1, #0
     daa:	d002      	beq.n	db2 <usart_sync_write+0x16>
     dac:	0010      	movs	r0, r2
     dae:	1e43      	subs	r3, r0, #1
     db0:	4198      	sbcs	r0, r3
     db2:	22f1      	movs	r2, #241	; 0xf1
     db4:	490e      	ldr	r1, [pc, #56]	; (df0 <usart_sync_write+0x54>)
     db6:	4b0f      	ldr	r3, [pc, #60]	; (df4 <usart_sync_write+0x58>)
     db8:	4798      	blx	r3
     dba:	0025      	movs	r5, r4
     dbc:	3508      	adds	r5, #8
     dbe:	0028      	movs	r0, r5
     dc0:	4b0d      	ldr	r3, [pc, #52]	; (df8 <usart_sync_write+0x5c>)
     dc2:	4798      	blx	r3
     dc4:	2800      	cmp	r0, #0
     dc6:	d0f8      	beq.n	dba <usart_sync_write+0x1e>
     dc8:	2400      	movs	r4, #0
     dca:	5d31      	ldrb	r1, [r6, r4]
     dcc:	0028      	movs	r0, r5
     dce:	4b0b      	ldr	r3, [pc, #44]	; (dfc <usart_sync_write+0x60>)
     dd0:	4798      	blx	r3
     dd2:	0028      	movs	r0, r5
     dd4:	4b08      	ldr	r3, [pc, #32]	; (df8 <usart_sync_write+0x5c>)
     dd6:	4798      	blx	r3
     dd8:	2800      	cmp	r0, #0
     dda:	d0fa      	beq.n	dd2 <usart_sync_write+0x36>
     ddc:	3401      	adds	r4, #1
     dde:	42bc      	cmp	r4, r7
     de0:	d3f3      	bcc.n	dca <usart_sync_write+0x2e>
     de2:	0028      	movs	r0, r5
     de4:	4b06      	ldr	r3, [pc, #24]	; (e00 <usart_sync_write+0x64>)
     de6:	4798      	blx	r3
     de8:	2800      	cmp	r0, #0
     dea:	d0fa      	beq.n	de2 <usart_sync_write+0x46>
     dec:	0020      	movs	r0, r4
     dee:	bdf8      	pop	{r3, r4, r5, r6, r7, pc}
     df0:	00002eb8 	.word	0x00002eb8
     df4:	00000ea1 	.word	0x00000ea1
     df8:	000013e1 	.word	0x000013e1
     dfc:	000013d1 	.word	0x000013d1
     e00:	000013eb 	.word	0x000013eb

00000e04 <usart_sync_read>:
     e04:	b5f7      	push	{r0, r1, r2, r4, r5, r6, r7, lr}
     e06:	0006      	movs	r6, r0
     e08:	000d      	movs	r5, r1
     e0a:	9201      	str	r2, [sp, #4]
     e0c:	2800      	cmp	r0, #0
     e0e:	d004      	beq.n	e1a <usart_sync_read+0x16>
     e10:	1e08      	subs	r0, r1, #0
     e12:	d002      	beq.n	e1a <usart_sync_read+0x16>
     e14:	0010      	movs	r0, r2
     e16:	1e43      	subs	r3, r0, #1
     e18:	4198      	sbcs	r0, r3
     e1a:	2286      	movs	r2, #134	; 0x86
     e1c:	490a      	ldr	r1, [pc, #40]	; (e48 <usart_sync_read+0x44>)
     e1e:	0052      	lsls	r2, r2, #1
     e20:	4b0a      	ldr	r3, [pc, #40]	; (e4c <usart_sync_read+0x48>)
     e22:	4798      	blx	r3
     e24:	2400      	movs	r4, #0
     e26:	0037      	movs	r7, r6
     e28:	3708      	adds	r7, #8
     e2a:	0038      	movs	r0, r7
     e2c:	4b08      	ldr	r3, [pc, #32]	; (e50 <usart_sync_read+0x4c>)
     e2e:	4798      	blx	r3
     e30:	2800      	cmp	r0, #0
     e32:	d0f8      	beq.n	e26 <usart_sync_read+0x22>
     e34:	4b07      	ldr	r3, [pc, #28]	; (e54 <usart_sync_read+0x50>)
     e36:	0038      	movs	r0, r7
     e38:	4798      	blx	r3
     e3a:	9b01      	ldr	r3, [sp, #4]
     e3c:	5528      	strb	r0, [r5, r4]
     e3e:	3401      	adds	r4, #1
     e40:	429c      	cmp	r4, r3
     e42:	d3f0      	bcc.n	e26 <usart_sync_read+0x22>
     e44:	0020      	movs	r0, r4
     e46:	bdfe      	pop	{r1, r2, r3, r4, r5, r6, r7, pc}
     e48:	00002eb8 	.word	0x00002eb8
     e4c:	00000ea1 	.word	0x00000ea1
     e50:	000013f5 	.word	0x000013f5
     e54:	000013d9 	.word	0x000013d9

00000e58 <usart_sync_init>:
     e58:	b570      	push	{r4, r5, r6, lr}
     e5a:	0004      	movs	r4, r0
     e5c:	000d      	movs	r5, r1
     e5e:	2800      	cmp	r0, #0
     e60:	d003      	beq.n	e6a <usart_sync_init+0x12>
     e62:	0008      	movs	r0, r1
     e64:	1e43      	subs	r3, r0, #1
     e66:	4198      	sbcs	r0, r3
     e68:	b2c0      	uxtb	r0, r0
     e6a:	4908      	ldr	r1, [pc, #32]	; (e8c <usart_sync_init+0x34>)
     e6c:	4b08      	ldr	r3, [pc, #32]	; (e90 <usart_sync_init+0x38>)
     e6e:	2234      	movs	r2, #52	; 0x34
     e70:	4798      	blx	r3
     e72:	0020      	movs	r0, r4
     e74:	0029      	movs	r1, r5
     e76:	3008      	adds	r0, #8
     e78:	4b06      	ldr	r3, [pc, #24]	; (e94 <usart_sync_init+0x3c>)
     e7a:	4798      	blx	r3
     e7c:	2800      	cmp	r0, #0
     e7e:	d103      	bne.n	e88 <usart_sync_init+0x30>
     e80:	4b05      	ldr	r3, [pc, #20]	; (e98 <usart_sync_init+0x40>)
     e82:	6063      	str	r3, [r4, #4]
     e84:	4b05      	ldr	r3, [pc, #20]	; (e9c <usart_sync_init+0x44>)
     e86:	6023      	str	r3, [r4, #0]
     e88:	bd70      	pop	{r4, r5, r6, pc}
     e8a:	46c0      	nop			; (mov r8, r8)
     e8c:	00002eb8 	.word	0x00002eb8
     e90:	00000ea1 	.word	0x00000ea1
     e94:	000013a5 	.word	0x000013a5
     e98:	00000e05 	.word	0x00000e05
     e9c:	00000d9d 	.word	0x00000d9d

00000ea0 <assert>:
     ea0:	2800      	cmp	r0, #0
     ea2:	d100      	bne.n	ea6 <assert+0x6>
     ea4:	be00      	bkpt	0x0000
     ea6:	4770      	bx	lr

00000ea8 <is_list_element>:
     ea8:	6800      	ldr	r0, [r0, #0]
     eaa:	2800      	cmp	r0, #0
     eac:	d100      	bne.n	eb0 <is_list_element+0x8>
     eae:	4770      	bx	lr
     eb0:	4288      	cmp	r0, r1
     eb2:	d1f9      	bne.n	ea8 <is_list_element>
     eb4:	2001      	movs	r0, #1
     eb6:	e7fa      	b.n	eae <is_list_element+0x6>

00000eb8 <list_insert_as_head>:
     eb8:	b570      	push	{r4, r5, r6, lr}
     eba:	4b08      	ldr	r3, [pc, #32]	; (edc <list_insert_as_head+0x24>)
     ebc:	000d      	movs	r5, r1
     ebe:	0004      	movs	r4, r0
     ec0:	4798      	blx	r3
     ec2:	0003      	movs	r3, r0
     ec4:	2001      	movs	r0, #1
     ec6:	4058      	eors	r0, r3
     ec8:	b2c0      	uxtb	r0, r0
     eca:	2239      	movs	r2, #57	; 0x39
     ecc:	4904      	ldr	r1, [pc, #16]	; (ee0 <list_insert_as_head+0x28>)
     ece:	4b05      	ldr	r3, [pc, #20]	; (ee4 <list_insert_as_head+0x2c>)
     ed0:	4798      	blx	r3
     ed2:	6823      	ldr	r3, [r4, #0]
     ed4:	602b      	str	r3, [r5, #0]
     ed6:	6025      	str	r5, [r4, #0]
     ed8:	bd70      	pop	{r4, r5, r6, pc}
     eda:	46c0      	nop			; (mov r8, r8)
     edc:	00000ea9 	.word	0x00000ea9
     ee0:	00002ed4 	.word	0x00002ed4
     ee4:	00000ea1 	.word	0x00000ea1

00000ee8 <list_insert_after>:
     ee8:	6803      	ldr	r3, [r0, #0]
     eea:	600b      	str	r3, [r1, #0]
     eec:	6001      	str	r1, [r0, #0]
     eee:	4770      	bx	lr

00000ef0 <list_remove_head>:
     ef0:	6803      	ldr	r3, [r0, #0]
     ef2:	2b00      	cmp	r3, #0
     ef4:	d001      	beq.n	efa <list_remove_head+0xa>
     ef6:	681a      	ldr	r2, [r3, #0]
     ef8:	6002      	str	r2, [r0, #0]
     efa:	0018      	movs	r0, r3
     efc:	4770      	bx	lr
	...

00000f00 <_init_chip>:
     f00:	b510      	push	{r4, lr}
     f02:	4b06      	ldr	r3, [pc, #24]	; (f1c <_init_chip+0x1c>)
     f04:	685a      	ldr	r2, [r3, #4]
     f06:	605a      	str	r2, [r3, #4]
     f08:	4b05      	ldr	r3, [pc, #20]	; (f20 <_init_chip+0x20>)
     f0a:	4798      	blx	r3
     f0c:	4b05      	ldr	r3, [pc, #20]	; (f24 <_init_chip+0x24>)
     f0e:	4798      	blx	r3
     f10:	4b05      	ldr	r3, [pc, #20]	; (f28 <_init_chip+0x28>)
     f12:	4798      	blx	r3
     f14:	20ff      	movs	r0, #255	; 0xff
     f16:	4b05      	ldr	r3, [pc, #20]	; (f2c <_init_chip+0x2c>)
     f18:	4798      	blx	r3
     f1a:	bd10      	pop	{r4, pc}
     f1c:	41004000 	.word	0x41004000
     f20:	00001071 	.word	0x00001071
     f24:	00001885 	.word	0x00001885
     f28:	000018c5 	.word	0x000018c5
     f2c:	00001051 	.word	0x00001051

00000f30 <hri_eic_wait_for_sync.constprop.3>:
     f30:	4a02      	ldr	r2, [pc, #8]	; (f3c <hri_eic_wait_for_sync.constprop.3+0xc>)
     f32:	7853      	ldrb	r3, [r2, #1]
     f34:	09db      	lsrs	r3, r3, #7
     f36:	d1fc      	bne.n	f32 <hri_eic_wait_for_sync.constprop.3+0x2>
     f38:	4770      	bx	lr
     f3a:	46c0      	nop			; (mov r8, r8)
     f3c:	40001800 	.word	0x40001800

00000f40 <_ext_irq_init>:
     f40:	b5f8      	push	{r3, r4, r5, r6, r7, lr}
     f42:	4c15      	ldr	r4, [pc, #84]	; (f98 <_ext_irq_init+0x58>)
     f44:	4d15      	ldr	r5, [pc, #84]	; (f9c <_ext_irq_init+0x5c>)
     f46:	0007      	movs	r7, r0
     f48:	47a8      	blx	r5
     f4a:	47a8      	blx	r5
     f4c:	7823      	ldrb	r3, [r4, #0]
     f4e:	079b      	lsls	r3, r3, #30
     f50:	d503      	bpl.n	f5a <_ext_irq_init+0x1a>
     f52:	2300      	movs	r3, #0
     f54:	7023      	strb	r3, [r4, #0]
     f56:	47a8      	blx	r5
     f58:	47a8      	blx	r5
     f5a:	2301      	movs	r3, #1
     f5c:	2600      	movs	r6, #0
     f5e:	7023      	strb	r3, [r4, #0]
     f60:	47a8      	blx	r5
     f62:	47a8      	blx	r5
     f64:	2302      	movs	r3, #2
     f66:	70a6      	strb	r6, [r4, #2]
     f68:	6066      	str	r6, [r4, #4]
     f6a:	6166      	str	r6, [r4, #20]
     f6c:	61a6      	str	r6, [r4, #24]
     f6e:	61e6      	str	r6, [r4, #28]
     f70:	7822      	ldrb	r2, [r4, #0]
     f72:	4313      	orrs	r3, r2
     f74:	7023      	strb	r3, [r4, #0]
     f76:	47a8      	blx	r5
     f78:	2310      	movs	r3, #16
     f7a:	4909      	ldr	r1, [pc, #36]	; (fa0 <_ext_irq_init+0x60>)
     f7c:	4a09      	ldr	r2, [pc, #36]	; (fa4 <_ext_irq_init+0x64>)
     f7e:	67cb      	str	r3, [r1, #124]	; 0x7c
     f80:	f3bf 8f4f 	dsb	sy
     f84:	f3bf 8f6f 	isb	sy
     f88:	21c0      	movs	r1, #192	; 0xc0
     f8a:	0049      	lsls	r1, r1, #1
     f8c:	5053      	str	r3, [r2, r1]
     f8e:	6013      	str	r3, [r2, #0]
     f90:	4b05      	ldr	r3, [pc, #20]	; (fa8 <_ext_irq_init+0x68>)
     f92:	0030      	movs	r0, r6
     f94:	601f      	str	r7, [r3, #0]
     f96:	bdf8      	pop	{r3, r4, r5, r6, r7, pc}
     f98:	40001800 	.word	0x40001800
     f9c:	00000f31 	.word	0x00000f31
     fa0:	e000e104 	.word	0xe000e104
     fa4:	e000e100 	.word	0xe000e100
     fa8:	20000198 	.word	0x20000198

00000fac <EIC_Handler>:
     fac:	b5f7      	push	{r0, r1, r2, r4, r5, r6, r7, lr}
     fae:	4d22      	ldr	r5, [pc, #136]	; (1038 <EIC_Handler+0x8c>)
     fb0:	4922      	ldr	r1, [pc, #136]	; (103c <EIC_Handler+0x90>)
     fb2:	692b      	ldr	r3, [r5, #16]
     fb4:	68ea      	ldr	r2, [r5, #12]
     fb6:	2601      	movs	r6, #1
     fb8:	4013      	ands	r3, r2
     fba:	9301      	str	r3, [sp, #4]
     fbc:	9b01      	ldr	r3, [sp, #4]
     fbe:	22d2      	movs	r2, #210	; 0xd2
     fc0:	612b      	str	r3, [r5, #16]
     fc2:	4b1f      	ldr	r3, [pc, #124]	; (1040 <EIC_Handler+0x94>)
     fc4:	4276      	negs	r6, r6
     fc6:	6818      	ldr	r0, [r3, #0]
     fc8:	1e43      	subs	r3, r0, #1
     fca:	4198      	sbcs	r0, r3
     fcc:	4b1d      	ldr	r3, [pc, #116]	; (1044 <EIC_Handler+0x98>)
     fce:	b2c0      	uxtb	r0, r0
     fd0:	4798      	blx	r3
     fd2:	9b01      	ldr	r3, [sp, #4]
     fd4:	2b00      	cmp	r3, #0
     fd6:	d11c      	bne.n	1012 <EIC_Handler+0x66>
     fd8:	bdf7      	pop	{r0, r1, r2, r4, r5, r6, r7, pc}
     fda:	4b1b      	ldr	r3, [pc, #108]	; (1048 <EIC_Handler+0x9c>)
     fdc:	2001      	movs	r0, #1
     fde:	2200      	movs	r2, #0
     fe0:	469c      	mov	ip, r3
     fe2:	4667      	mov	r7, ip
     fe4:	1883      	adds	r3, r0, r2
     fe6:	105b      	asrs	r3, r3, #1
     fe8:	b2d9      	uxtb	r1, r3
     fea:	00db      	lsls	r3, r3, #3
     fec:	5ddb      	ldrb	r3, [r3, r7]
     fee:	42a3      	cmp	r3, r4
     ff0:	d020      	beq.n	1034 <EIC_Handler+0x88>
     ff2:	da1c      	bge.n	102e <EIC_Handler+0x82>
     ff4:	3101      	adds	r1, #1
     ff6:	b2ca      	uxtb	r2, r1
     ff8:	4290      	cmp	r0, r2
     ffa:	d2f2      	bcs.n	fe2 <EIC_Handler+0x36>
     ffc:	1c73      	adds	r3, r6, #1
     ffe:	d003      	beq.n	1008 <EIC_Handler+0x5c>
    1000:	4b0f      	ldr	r3, [pc, #60]	; (1040 <EIC_Handler+0x94>)
    1002:	0030      	movs	r0, r6
    1004:	681b      	ldr	r3, [r3, #0]
    1006:	4798      	blx	r3
    1008:	2201      	movs	r2, #1
    100a:	40a2      	lsls	r2, r4
    100c:	9b01      	ldr	r3, [sp, #4]
    100e:	4393      	bics	r3, r2
    1010:	9301      	str	r3, [sp, #4]
    1012:	9801      	ldr	r0, [sp, #4]
    1014:	4b0d      	ldr	r3, [pc, #52]	; (104c <EIC_Handler+0xa0>)
    1016:	4798      	blx	r3
    1018:	3801      	subs	r0, #1
    101a:	b244      	sxtb	r4, r0
    101c:	1c63      	adds	r3, r4, #1
    101e:	d1dc      	bne.n	fda <EIC_Handler+0x2e>
    1020:	692b      	ldr	r3, [r5, #16]
    1022:	68ea      	ldr	r2, [r5, #12]
    1024:	4013      	ands	r3, r2
    1026:	9301      	str	r3, [sp, #4]
    1028:	9b01      	ldr	r3, [sp, #4]
    102a:	612b      	str	r3, [r5, #16]
    102c:	e7d1      	b.n	fd2 <EIC_Handler+0x26>
    102e:	3901      	subs	r1, #1
    1030:	b2c8      	uxtb	r0, r1
    1032:	e7e1      	b.n	ff8 <EIC_Handler+0x4c>
    1034:	2623      	movs	r6, #35	; 0x23
    1036:	e7e3      	b.n	1000 <EIC_Handler+0x54>
    1038:	40001800 	.word	0x40001800
    103c:	00002efc 	.word	0x00002efc
    1040:	20000198 	.word	0x20000198
    1044:	00000ea1 	.word	0x00000ea1
    1048:	00002ef4 	.word	0x00002ef4
    104c:	000021c5 	.word	0x000021c5

00001050 <_gclk_init_generators_by_fref>:
    1050:	07c3      	lsls	r3, r0, #31
    1052:	d509      	bpl.n	1068 <_gclk_init_generators_by_fref+0x18>
    1054:	2280      	movs	r2, #128	; 0x80
    1056:	4b05      	ldr	r3, [pc, #20]	; (106c <_gclk_init_generators_by_fref+0x1c>)
    1058:	0052      	lsls	r2, r2, #1
    105a:	609a      	str	r2, [r3, #8]
    105c:	2283      	movs	r2, #131	; 0x83
    105e:	0252      	lsls	r2, r2, #9
    1060:	605a      	str	r2, [r3, #4]
    1062:	785a      	ldrb	r2, [r3, #1]
    1064:	09d2      	lsrs	r2, r2, #7
    1066:	d1fc      	bne.n	1062 <_gclk_init_generators_by_fref+0x12>
    1068:	4770      	bx	lr
    106a:	46c0      	nop			; (mov r8, r8)
    106c:	40000c00 	.word	0x40000c00

00001070 <_pm_init>:
    1070:	4b06      	ldr	r3, [pc, #24]	; (108c <_pm_init+0x1c>)
    1072:	7a1a      	ldrb	r2, [r3, #8]
    1074:	b2d2      	uxtb	r2, r2
    1076:	721a      	strb	r2, [r3, #8]
    1078:	7a5a      	ldrb	r2, [r3, #9]
    107a:	b2d2      	uxtb	r2, r2
    107c:	725a      	strb	r2, [r3, #9]
    107e:	7a9a      	ldrb	r2, [r3, #10]
    1080:	b2d2      	uxtb	r2, r2
    1082:	729a      	strb	r2, [r3, #10]
    1084:	7ada      	ldrb	r2, [r3, #11]
    1086:	b2d2      	uxtb	r2, r2
    1088:	72da      	strb	r2, [r3, #11]
    108a:	4770      	bx	lr
    108c:	40000400 	.word	0x40000400

00001090 <hri_rtc_wait_for_sync>:
    1090:	7a83      	ldrb	r3, [r0, #10]
    1092:	09db      	lsrs	r3, r3, #7
    1094:	d1fc      	bne.n	1090 <hri_rtc_wait_for_sync>
    1096:	4770      	bx	lr

00001098 <_timer_init>:
    1098:	b570      	push	{r4, r5, r6, lr}
    109a:	0004      	movs	r4, r0
    109c:	1e43      	subs	r3, r0, #1
    109e:	4198      	sbcs	r0, r3
    10a0:	000d      	movs	r5, r1
    10a2:	2601      	movs	r6, #1
    10a4:	2233      	movs	r2, #51	; 0x33
    10a6:	490d      	ldr	r1, [pc, #52]	; (10dc <_timer_init+0x44>)
    10a8:	4b0d      	ldr	r3, [pc, #52]	; (10e0 <_timer_init+0x48>)
    10aa:	b2c0      	uxtb	r0, r0
    10ac:	4798      	blx	r3
    10ae:	60e5      	str	r5, [r4, #12]
    10b0:	0028      	movs	r0, r5
    10b2:	802e      	strh	r6, [r5, #0]
    10b4:	4d0b      	ldr	r5, [pc, #44]	; (10e4 <_timer_init+0x4c>)
    10b6:	47a8      	blx	r5
    10b8:	68e0      	ldr	r0, [r4, #12]
    10ba:	47a8      	blx	r5
    10bc:	2380      	movs	r3, #128	; 0x80
    10be:	68e0      	ldr	r0, [r4, #12]
    10c0:	8003      	strh	r3, [r0, #0]
    10c2:	47a8      	blx	r5
    10c4:	68e0      	ldr	r0, [r4, #12]
    10c6:	6983      	ldr	r3, [r0, #24]
    10c8:	2380      	movs	r3, #128	; 0x80
    10ca:	00db      	lsls	r3, r3, #3
    10cc:	6183      	str	r3, [r0, #24]
    10ce:	47a8      	blx	r5
    10d0:	68e3      	ldr	r3, [r4, #12]
    10d2:	2000      	movs	r0, #0
    10d4:	71de      	strb	r6, [r3, #7]
    10d6:	4b04      	ldr	r3, [pc, #16]	; (10e8 <_timer_init+0x50>)
    10d8:	601c      	str	r4, [r3, #0]
    10da:	bd70      	pop	{r4, r5, r6, pc}
    10dc:	00002f11 	.word	0x00002f11
    10e0:	00000ea1 	.word	0x00000ea1
    10e4:	00001091 	.word	0x00001091
    10e8:	2000019c 	.word	0x2000019c

000010ec <_timer_start>:
    10ec:	b570      	push	{r4, r5, r6, lr}
    10ee:	1e04      	subs	r4, r0, #0
    10f0:	d003      	beq.n	10fa <_timer_start+0xe>
    10f2:	68c0      	ldr	r0, [r0, #12]
    10f4:	1e43      	subs	r3, r0, #1
    10f6:	4198      	sbcs	r0, r3
    10f8:	b2c0      	uxtb	r0, r0
    10fa:	490b      	ldr	r1, [pc, #44]	; (1128 <_timer_start+0x3c>)
    10fc:	226a      	movs	r2, #106	; 0x6a
    10fe:	4b0b      	ldr	r3, [pc, #44]	; (112c <_timer_start+0x40>)
    1100:	4798      	blx	r3
    1102:	2208      	movs	r2, #8
    1104:	4b0a      	ldr	r3, [pc, #40]	; (1130 <_timer_start+0x44>)
    1106:	68e0      	ldr	r0, [r4, #12]
    1108:	601a      	str	r2, [r3, #0]
    110a:	6903      	ldr	r3, [r0, #16]
    110c:	2300      	movs	r3, #0
    110e:	4d09      	ldr	r5, [pc, #36]	; (1134 <_timer_start+0x48>)
    1110:	6103      	str	r3, [r0, #16]
    1112:	47a8      	blx	r5
    1114:	68e0      	ldr	r0, [r4, #12]
    1116:	47a8      	blx	r5
    1118:	2302      	movs	r3, #2
    111a:	68e0      	ldr	r0, [r4, #12]
    111c:	8802      	ldrh	r2, [r0, #0]
    111e:	4313      	orrs	r3, r2
    1120:	8003      	strh	r3, [r0, #0]
    1122:	47a8      	blx	r5
    1124:	bd70      	pop	{r4, r5, r6, pc}
    1126:	46c0      	nop			; (mov r8, r8)
    1128:	00002f11 	.word	0x00002f11
    112c:	00000ea1 	.word	0x00000ea1
    1130:	e000e100 	.word	0xe000e100
    1134:	00001091 	.word	0x00001091

00001138 <_timer_set_period>:
    1138:	b510      	push	{r4, lr}
    113a:	68c0      	ldr	r0, [r0, #12]
    113c:	6983      	ldr	r3, [r0, #24]
    113e:	6181      	str	r1, [r0, #24]
    1140:	4b01      	ldr	r3, [pc, #4]	; (1148 <_timer_set_period+0x10>)
    1142:	4798      	blx	r3
    1144:	bd10      	pop	{r4, pc}
    1146:	46c0      	nop			; (mov r8, r8)
    1148:	00001091 	.word	0x00001091

0000114c <_timer_is_started>:
    114c:	b510      	push	{r4, lr}
    114e:	68c4      	ldr	r4, [r0, #12]
    1150:	4b03      	ldr	r3, [pc, #12]	; (1160 <_timer_is_started+0x14>)
    1152:	0020      	movs	r0, r4
    1154:	4798      	blx	r3
    1156:	8820      	ldrh	r0, [r4, #0]
    1158:	0780      	lsls	r0, r0, #30
    115a:	0fc0      	lsrs	r0, r0, #31
    115c:	bd10      	pop	{r4, pc}
    115e:	46c0      	nop			; (mov r8, r8)
    1160:	00001091 	.word	0x00001091

00001164 <_timer_set_irq>:
    1164:	4770      	bx	lr

00001166 <_rtc_get_timer>:
    1166:	2000      	movs	r0, #0
    1168:	4770      	bx	lr
	...

0000116c <RTC_Handler>:
    116c:	b570      	push	{r4, r5, r6, lr}
    116e:	2501      	movs	r5, #1
    1170:	4b06      	ldr	r3, [pc, #24]	; (118c <RTC_Handler+0x20>)
    1172:	681c      	ldr	r4, [r3, #0]
    1174:	68e3      	ldr	r3, [r4, #12]
    1176:	7a1b      	ldrb	r3, [r3, #8]
    1178:	422b      	tst	r3, r5
    117a:	d006      	beq.n	118a <RTC_Handler+0x1e>
    117c:	6823      	ldr	r3, [r4, #0]
    117e:	2b00      	cmp	r3, #0
    1180:	d001      	beq.n	1186 <RTC_Handler+0x1a>
    1182:	0020      	movs	r0, r4
    1184:	4798      	blx	r3
    1186:	68e3      	ldr	r3, [r4, #12]
    1188:	721d      	strb	r5, [r3, #8]
    118a:	bd70      	pop	{r4, r5, r6, pc}
    118c:	2000019c 	.word	0x2000019c

00001190 <__NVIC_EnableIRQ>:
    1190:	2800      	cmp	r0, #0
    1192:	db05      	blt.n	11a0 <__NVIC_EnableIRQ+0x10>
    1194:	231f      	movs	r3, #31
    1196:	4018      	ands	r0, r3
    1198:	3b1e      	subs	r3, #30
    119a:	4083      	lsls	r3, r0
    119c:	4a01      	ldr	r2, [pc, #4]	; (11a4 <__NVIC_EnableIRQ+0x14>)
    119e:	6013      	str	r3, [r2, #0]
    11a0:	4770      	bx	lr
    11a2:	46c0      	nop			; (mov r8, r8)
    11a4:	e000e100 	.word	0xe000e100

000011a8 <__NVIC_DisableIRQ>:
    11a8:	2800      	cmp	r0, #0
    11aa:	db09      	blt.n	11c0 <__NVIC_DisableIRQ+0x18>
    11ac:	231f      	movs	r3, #31
    11ae:	4018      	ands	r0, r3
    11b0:	3b1e      	subs	r3, #30
    11b2:	4083      	lsls	r3, r0
    11b4:	4a03      	ldr	r2, [pc, #12]	; (11c4 <__NVIC_DisableIRQ+0x1c>)
    11b6:	67d3      	str	r3, [r2, #124]	; 0x7c
    11b8:	f3bf 8f4f 	dsb	sy
    11bc:	f3bf 8f6f 	isb	sy
    11c0:	4770      	bx	lr
    11c2:	46c0      	nop			; (mov r8, r8)
    11c4:	e000e104 	.word	0xe000e104

000011c8 <__NVIC_ClearPendingIRQ>:
    11c8:	2800      	cmp	r0, #0
    11ca:	db07      	blt.n	11dc <__NVIC_ClearPendingIRQ+0x14>
    11cc:	231f      	movs	r3, #31
    11ce:	22c0      	movs	r2, #192	; 0xc0
    11d0:	4018      	ands	r0, r3
    11d2:	3b1e      	subs	r3, #30
    11d4:	4083      	lsls	r3, r0
    11d6:	4902      	ldr	r1, [pc, #8]	; (11e0 <__NVIC_ClearPendingIRQ+0x18>)
    11d8:	0052      	lsls	r2, r2, #1
    11da:	508b      	str	r3, [r1, r2]
    11dc:	4770      	bx	lr
    11de:	46c0      	nop			; (mov r8, r8)
    11e0:	e000e100 	.word	0xe000e100

000011e4 <hri_sercomspi_wait_for_sync>:
    11e4:	69c3      	ldr	r3, [r0, #28]
    11e6:	4219      	tst	r1, r3
    11e8:	d1fc      	bne.n	11e4 <hri_sercomspi_wait_for_sync>
    11ea:	4770      	bx	lr

000011ec <hri_sercomusart_wait_for_sync>:
    11ec:	69c3      	ldr	r3, [r0, #28]
    11ee:	4219      	tst	r1, r3
    11f0:	d1fc      	bne.n	11ec <hri_sercomusart_wait_for_sync>
    11f2:	4770      	bx	lr

000011f4 <hri_sercomusart_clear_CTRLA_ENABLE_bit>:
    11f4:	2202      	movs	r2, #2
    11f6:	b510      	push	{r4, lr}
    11f8:	6803      	ldr	r3, [r0, #0]
    11fa:	2103      	movs	r1, #3
    11fc:	4393      	bics	r3, r2
    11fe:	6003      	str	r3, [r0, #0]
    1200:	4b01      	ldr	r3, [pc, #4]	; (1208 <hri_sercomusart_clear_CTRLA_ENABLE_bit+0x14>)
    1202:	4798      	blx	r3
    1204:	bd10      	pop	{r4, pc}
    1206:	46c0      	nop			; (mov r8, r8)
    1208:	000011ed 	.word	0x000011ed

0000120c <_sercom_init_irq_param>:
    120c:	4b08      	ldr	r3, [pc, #32]	; (1230 <_sercom_init_irq_param+0x24>)
    120e:	4298      	cmp	r0, r3
    1210:	d102      	bne.n	1218 <_sercom_init_irq_param+0xc>
    1212:	4b08      	ldr	r3, [pc, #32]	; (1234 <_sercom_init_irq_param+0x28>)
    1214:	6019      	str	r1, [r3, #0]
    1216:	4770      	bx	lr
    1218:	4b07      	ldr	r3, [pc, #28]	; (1238 <_sercom_init_irq_param+0x2c>)
    121a:	4298      	cmp	r0, r3
    121c:	d102      	bne.n	1224 <_sercom_init_irq_param+0x18>
    121e:	4b05      	ldr	r3, [pc, #20]	; (1234 <_sercom_init_irq_param+0x28>)
    1220:	6059      	str	r1, [r3, #4]
    1222:	e7f8      	b.n	1216 <_sercom_init_irq_param+0xa>
    1224:	4b05      	ldr	r3, [pc, #20]	; (123c <_sercom_init_irq_param+0x30>)
    1226:	4298      	cmp	r0, r3
    1228:	d1f5      	bne.n	1216 <_sercom_init_irq_param+0xa>
    122a:	4b02      	ldr	r3, [pc, #8]	; (1234 <_sercom_init_irq_param+0x28>)
    122c:	6099      	str	r1, [r3, #8]
    122e:	e7f2      	b.n	1216 <_sercom_init_irq_param+0xa>
    1230:	42000800 	.word	0x42000800
    1234:	200001a0 	.word	0x200001a0
    1238:	42000c00 	.word	0x42000c00
    123c:	42001800 	.word	0x42001800

00001240 <_spi_sync_enable>:
    1240:	2301      	movs	r3, #1
    1242:	b510      	push	{r4, lr}
    1244:	69c4      	ldr	r4, [r0, #28]
    1246:	401c      	ands	r4, r3
    1248:	d108      	bne.n	125c <_spi_sync_enable+0x1c>
    124a:	6802      	ldr	r2, [r0, #0]
    124c:	18db      	adds	r3, r3, r3
    124e:	4313      	orrs	r3, r2
    1250:	6003      	str	r3, [r0, #0]
    1252:	2103      	movs	r1, #3
    1254:	4b03      	ldr	r3, [pc, #12]	; (1264 <_spi_sync_enable+0x24>)
    1256:	4798      	blx	r3
    1258:	0020      	movs	r0, r4
    125a:	bd10      	pop	{r4, pc}
    125c:	2004      	movs	r0, #4
    125e:	4240      	negs	r0, r0
    1260:	e7fb      	b.n	125a <_spi_sync_enable+0x1a>
    1262:	46c0      	nop			; (mov r8, r8)
    1264:	000011e5 	.word	0x000011e5

00001268 <_spi_handler>:
    1268:	b510      	push	{r4, lr}
    126a:	6802      	ldr	r2, [r0, #0]
    126c:	7e13      	ldrb	r3, [r2, #24]
    126e:	7d91      	ldrb	r1, [r2, #22]
    1270:	400b      	ands	r3, r1
    1272:	07d9      	lsls	r1, r3, #31
    1274:	d502      	bpl.n	127c <_spi_handler+0x14>
    1276:	6883      	ldr	r3, [r0, #8]
    1278:	4798      	blx	r3
    127a:	bd10      	pop	{r4, pc}
    127c:	2104      	movs	r1, #4
    127e:	420b      	tst	r3, r1
    1280:	d001      	beq.n	1286 <_spi_handler+0x1e>
    1282:	68c3      	ldr	r3, [r0, #12]
    1284:	e7f8      	b.n	1278 <_spi_handler+0x10>
    1286:	2402      	movs	r4, #2
    1288:	4223      	tst	r3, r4
    128a:	d002      	beq.n	1292 <_spi_handler+0x2a>
    128c:	7614      	strb	r4, [r2, #24]
    128e:	6903      	ldr	r3, [r0, #16]
    1290:	e7f2      	b.n	1278 <_spi_handler+0x10>
    1292:	b25b      	sxtb	r3, r3
    1294:	2b00      	cmp	r3, #0
    1296:	daf0      	bge.n	127a <_spi_handler+0x12>
    1298:	2380      	movs	r3, #128	; 0x80
    129a:	8351      	strh	r1, [r2, #26]
    129c:	2113      	movs	r1, #19
    129e:	7613      	strb	r3, [r2, #24]
    12a0:	6943      	ldr	r3, [r0, #20]
    12a2:	4249      	negs	r1, r1
    12a4:	4798      	blx	r3
    12a6:	e7e8      	b.n	127a <_spi_handler+0x12>

000012a8 <_spi_set_mode>:
    12a8:	b5f7      	push	{r0, r1, r2, r4, r5, r6, r7, lr}
    12aa:	2603      	movs	r6, #3
    12ac:	0005      	movs	r5, r0
    12ae:	69c0      	ldr	r0, [r0, #28]
    12b0:	000c      	movs	r4, r1
    12b2:	4030      	ands	r0, r6
    12b4:	9001      	str	r0, [sp, #4]
    12b6:	d111      	bne.n	12dc <_spi_set_mode+0x34>
    12b8:	0031      	movs	r1, r6
    12ba:	0028      	movs	r0, r5
    12bc:	4f09      	ldr	r7, [pc, #36]	; (12e4 <_spi_set_mode+0x3c>)
    12be:	47b8      	blx	r7
    12c0:	682b      	ldr	r3, [r5, #0]
    12c2:	4a09      	ldr	r2, [pc, #36]	; (12e8 <_spi_set_mode+0x40>)
    12c4:	0724      	lsls	r4, r4, #28
    12c6:	4013      	ands	r3, r2
    12c8:	22c0      	movs	r2, #192	; 0xc0
    12ca:	0592      	lsls	r2, r2, #22
    12cc:	4014      	ands	r4, r2
    12ce:	431c      	orrs	r4, r3
    12d0:	0028      	movs	r0, r5
    12d2:	602c      	str	r4, [r5, #0]
    12d4:	0031      	movs	r1, r6
    12d6:	47b8      	blx	r7
    12d8:	9801      	ldr	r0, [sp, #4]
    12da:	bdfe      	pop	{r1, r2, r3, r4, r5, r6, r7, pc}
    12dc:	2004      	movs	r0, #4
    12de:	4240      	negs	r0, r0
    12e0:	e7fb      	b.n	12da <_spi_set_mode+0x32>
    12e2:	46c0      	nop			; (mov r8, r8)
    12e4:	000011e5 	.word	0x000011e5
    12e8:	cfffffff 	.word	0xcfffffff

000012ec <_spi_sync_disable>:
    12ec:	2301      	movs	r3, #1
    12ee:	b510      	push	{r4, lr}
    12f0:	69c4      	ldr	r4, [r0, #28]
    12f2:	401c      	ands	r4, r3
    12f4:	d108      	bne.n	1308 <_spi_sync_disable+0x1c>
    12f6:	2202      	movs	r2, #2
    12f8:	6803      	ldr	r3, [r0, #0]
    12fa:	2103      	movs	r1, #3
    12fc:	4393      	bics	r3, r2
    12fe:	6003      	str	r3, [r0, #0]
    1300:	4b03      	ldr	r3, [pc, #12]	; (1310 <_spi_sync_disable+0x24>)
    1302:	4798      	blx	r3
    1304:	0020      	movs	r0, r4
    1306:	bd10      	pop	{r4, pc}
    1308:	2004      	movs	r0, #4
    130a:	4240      	negs	r0, r0
    130c:	e7fb      	b.n	1306 <_spi_sync_disable+0x1a>
    130e:	46c0      	nop			; (mov r8, r8)
    1310:	000011e5 	.word	0x000011e5

00001314 <_usart_init>:
    1314:	4b1c      	ldr	r3, [pc, #112]	; (1388 <_usart_init+0x74>)
    1316:	b570      	push	{r4, r5, r6, lr}
    1318:	18c3      	adds	r3, r0, r3
    131a:	0a9b      	lsrs	r3, r3, #10
    131c:	b2db      	uxtb	r3, r3
    131e:	0004      	movs	r4, r0
    1320:	2b05      	cmp	r3, #5
    1322:	d005      	beq.n	1330 <_usart_init+0x1c>
    1324:	2290      	movs	r2, #144	; 0x90
    1326:	4919      	ldr	r1, [pc, #100]	; (138c <_usart_init+0x78>)
    1328:	0092      	lsls	r2, r2, #2
    132a:	2000      	movs	r0, #0
    132c:	4b18      	ldr	r3, [pc, #96]	; (1390 <_usart_init+0x7c>)
    132e:	4798      	blx	r3
    1330:	69e3      	ldr	r3, [r4, #28]
    1332:	4d18      	ldr	r5, [pc, #96]	; (1394 <_usart_init+0x80>)
    1334:	07db      	lsls	r3, r3, #31
    1336:	d411      	bmi.n	135c <_usart_init+0x48>
    1338:	2602      	movs	r6, #2
    133a:	2103      	movs	r1, #3
    133c:	0020      	movs	r0, r4
    133e:	47a8      	blx	r5
    1340:	6823      	ldr	r3, [r4, #0]
    1342:	4233      	tst	r3, r6
    1344:	d005      	beq.n	1352 <_usart_init+0x3e>
    1346:	0020      	movs	r0, r4
    1348:	4b13      	ldr	r3, [pc, #76]	; (1398 <_usart_init+0x84>)
    134a:	4798      	blx	r3
    134c:	0031      	movs	r1, r6
    134e:	0020      	movs	r0, r4
    1350:	47a8      	blx	r5
    1352:	2305      	movs	r3, #5
    1354:	2103      	movs	r1, #3
    1356:	6023      	str	r3, [r4, #0]
    1358:	0020      	movs	r0, r4
    135a:	47a8      	blx	r5
    135c:	0020      	movs	r0, r4
    135e:	2101      	movs	r1, #1
    1360:	47a8      	blx	r5
    1362:	4b0e      	ldr	r3, [pc, #56]	; (139c <_usart_init+0x88>)
    1364:	0020      	movs	r0, r4
    1366:	6023      	str	r3, [r4, #0]
    1368:	2103      	movs	r1, #3
    136a:	47a8      	blx	r5
    136c:	23c0      	movs	r3, #192	; 0xc0
    136e:	029b      	lsls	r3, r3, #10
    1370:	6063      	str	r3, [r4, #4]
    1372:	0020      	movs	r0, r4
    1374:	2107      	movs	r1, #7
    1376:	47a8      	blx	r5
    1378:	2000      	movs	r0, #0
    137a:	4b09      	ldr	r3, [pc, #36]	; (13a0 <_usart_init+0x8c>)
    137c:	81a3      	strh	r3, [r4, #12]
    137e:	73a0      	strb	r0, [r4, #14]
    1380:	3430      	adds	r4, #48	; 0x30
    1382:	7020      	strb	r0, [r4, #0]
    1384:	bd70      	pop	{r4, r5, r6, pc}
    1386:	46c0      	nop			; (mov r8, r8)
    1388:	bdfff800 	.word	0xbdfff800
    138c:	00002f73 	.word	0x00002f73
    1390:	00000ea1 	.word	0x00000ea1
    1394:	000011ed 	.word	0x000011ed
    1398:	000011f5 	.word	0x000011f5
    139c:	40310004 	.word	0x40310004
    13a0:	fffffb15 	.word	0xfffffb15

000013a4 <_usart_sync_init>:
    13a4:	b570      	push	{r4, r5, r6, lr}
    13a6:	0005      	movs	r5, r0
    13a8:	1e43      	subs	r3, r0, #1
    13aa:	4198      	sbcs	r0, r3
    13ac:	000c      	movs	r4, r1
    13ae:	22ba      	movs	r2, #186	; 0xba
    13b0:	4904      	ldr	r1, [pc, #16]	; (13c4 <_usart_sync_init+0x20>)
    13b2:	b2c0      	uxtb	r0, r0
    13b4:	4b04      	ldr	r3, [pc, #16]	; (13c8 <_usart_sync_init+0x24>)
    13b6:	4798      	blx	r3
    13b8:	602c      	str	r4, [r5, #0]
    13ba:	0020      	movs	r0, r4
    13bc:	4b03      	ldr	r3, [pc, #12]	; (13cc <_usart_sync_init+0x28>)
    13be:	4798      	blx	r3
    13c0:	bd70      	pop	{r4, r5, r6, pc}
    13c2:	46c0      	nop			; (mov r8, r8)
    13c4:	00002f73 	.word	0x00002f73
    13c8:	00000ea1 	.word	0x00000ea1
    13cc:	00001315 	.word	0x00001315

000013d0 <_usart_sync_write_byte>:
    13d0:	6803      	ldr	r3, [r0, #0]
    13d2:	b289      	uxth	r1, r1
    13d4:	8519      	strh	r1, [r3, #40]	; 0x28
    13d6:	4770      	bx	lr

000013d8 <_usart_sync_read_byte>:
    13d8:	6803      	ldr	r3, [r0, #0]
    13da:	8d18      	ldrh	r0, [r3, #40]	; 0x28
    13dc:	b2c0      	uxtb	r0, r0
    13de:	4770      	bx	lr

000013e0 <_usart_sync_is_ready_to_send>:
    13e0:	6803      	ldr	r3, [r0, #0]
    13e2:	7e18      	ldrb	r0, [r3, #24]
    13e4:	2301      	movs	r3, #1
    13e6:	4018      	ands	r0, r3
    13e8:	4770      	bx	lr

000013ea <_usart_sync_is_transmit_done>:
    13ea:	6803      	ldr	r3, [r0, #0]
    13ec:	7e18      	ldrb	r0, [r3, #24]
    13ee:	0780      	lsls	r0, r0, #30
    13f0:	0fc0      	lsrs	r0, r0, #31
    13f2:	4770      	bx	lr

000013f4 <_usart_sync_is_byte_received>:
    13f4:	6803      	ldr	r3, [r0, #0]
    13f6:	7e18      	ldrb	r0, [r3, #24]
    13f8:	0740      	lsls	r0, r0, #29
    13fa:	0fc0      	lsrs	r0, r0, #31
    13fc:	4770      	bx	lr
	...

00001400 <SERCOM0_Handler>:
    1400:	b510      	push	{r4, lr}
    1402:	4b02      	ldr	r3, [pc, #8]	; (140c <SERCOM0_Handler+0xc>)
    1404:	6818      	ldr	r0, [r3, #0]
    1406:	4b02      	ldr	r3, [pc, #8]	; (1410 <SERCOM0_Handler+0x10>)
    1408:	4798      	blx	r3
    140a:	bd10      	pop	{r4, pc}
    140c:	200001a0 	.word	0x200001a0
    1410:	00001269 	.word	0x00001269

00001414 <SERCOM1_Handler>:
    1414:	b510      	push	{r4, lr}
    1416:	4b02      	ldr	r3, [pc, #8]	; (1420 <SERCOM1_Handler+0xc>)
    1418:	6858      	ldr	r0, [r3, #4]
    141a:	4b02      	ldr	r3, [pc, #8]	; (1424 <SERCOM1_Handler+0x10>)
    141c:	4798      	blx	r3
    141e:	bd10      	pop	{r4, pc}
    1420:	200001a0 	.word	0x200001a0
    1424:	00001269 	.word	0x00001269

00001428 <SERCOM4_Handler>:
    1428:	b510      	push	{r4, lr}
    142a:	4b02      	ldr	r3, [pc, #8]	; (1434 <SERCOM4_Handler+0xc>)
    142c:	6898      	ldr	r0, [r3, #8]
    142e:	4b02      	ldr	r3, [pc, #8]	; (1438 <SERCOM4_Handler+0x10>)
    1430:	4798      	blx	r3
    1432:	bd10      	pop	{r4, pc}
    1434:	200001a0 	.word	0x200001a0
    1438:	00001269 	.word	0x00001269

0000143c <_spi_m_sync_init>:
    143c:	4b64      	ldr	r3, [pc, #400]	; (15d0 <_spi_m_sync_init+0x194>)
    143e:	b5f7      	push	{r0, r1, r2, r4, r5, r6, r7, lr}
    1440:	18cc      	adds	r4, r1, r3
    1442:	0aa4      	lsrs	r4, r4, #10
    1444:	b2e4      	uxtb	r4, r4
    1446:	0007      	movs	r7, r0
    1448:	000d      	movs	r5, r1
    144a:	4b62      	ldr	r3, [pc, #392]	; (15d4 <_spi_m_sync_init+0x198>)
    144c:	2c00      	cmp	r4, #0
    144e:	d005      	beq.n	145c <_spi_m_sync_init+0x20>
    1450:	2c01      	cmp	r4, #1
    1452:	d003      	beq.n	145c <_spi_m_sync_init+0x20>
    1454:	2c04      	cmp	r4, #4
    1456:	d000      	beq.n	145a <_spi_m_sync_init+0x1e>
    1458:	e0af      	b.n	15ba <_spi_m_sync_init+0x17e>
    145a:	3c02      	subs	r4, #2
    145c:	2211      	movs	r2, #17
    145e:	2000      	movs	r0, #0
    1460:	4354      	muls	r4, r2
    1462:	4a5d      	ldr	r2, [pc, #372]	; (15d8 <_spi_m_sync_init+0x19c>)
    1464:	3218      	adds	r2, #24
    1466:	1914      	adds	r4, r2, r4
    1468:	4287      	cmp	r7, r0
    146a:	d003      	beq.n	1474 <_spi_m_sync_init+0x38>
    146c:	0028      	movs	r0, r5
    146e:	1e42      	subs	r2, r0, #1
    1470:	4190      	sbcs	r0, r2
    1472:	b2c0      	uxtb	r0, r0
    1474:	4a59      	ldr	r2, [pc, #356]	; (15dc <_spi_m_sync_init+0x1a0>)
    1476:	495a      	ldr	r1, [pc, #360]	; (15e0 <_spi_m_sync_init+0x1a4>)
    1478:	4798      	blx	r3
    147a:	2c00      	cmp	r4, #0
    147c:	d100      	bne.n	1480 <_spi_m_sync_init+0x44>
    147e:	e0a4      	b.n	15ca <_spi_m_sync_init+0x18e>
    1480:	69eb      	ldr	r3, [r5, #28]
    1482:	4e58      	ldr	r6, [pc, #352]	; (15e4 <_spi_m_sync_init+0x1a8>)
    1484:	07db      	lsls	r3, r3, #31
    1486:	d41a      	bmi.n	14be <_spi_m_sync_init+0x82>
    1488:	231c      	movs	r3, #28
    148a:	7822      	ldrb	r2, [r4, #0]
    148c:	2103      	movs	r1, #3
    148e:	401a      	ands	r2, r3
    1490:	0028      	movs	r0, r5
    1492:	9201      	str	r2, [sp, #4]
    1494:	47b0      	blx	r6
    1496:	2202      	movs	r2, #2
    1498:	682b      	ldr	r3, [r5, #0]
    149a:	4213      	tst	r3, r2
    149c:	d008      	beq.n	14b0 <_spi_m_sync_init+0x74>
    149e:	682b      	ldr	r3, [r5, #0]
    14a0:	2103      	movs	r1, #3
    14a2:	4393      	bics	r3, r2
    14a4:	0028      	movs	r0, r5
    14a6:	602b      	str	r3, [r5, #0]
    14a8:	47b0      	blx	r6
    14aa:	2102      	movs	r1, #2
    14ac:	0028      	movs	r0, r5
    14ae:	47b0      	blx	r6
    14b0:	2301      	movs	r3, #1
    14b2:	9a01      	ldr	r2, [sp, #4]
    14b4:	2103      	movs	r1, #3
    14b6:	4313      	orrs	r3, r2
    14b8:	602b      	str	r3, [r5, #0]
    14ba:	0028      	movs	r0, r5
    14bc:	47b0      	blx	r6
    14be:	2101      	movs	r1, #1
    14c0:	0028      	movs	r0, r5
    14c2:	47b0      	blx	r6
    14c4:	221c      	movs	r2, #28
    14c6:	7823      	ldrb	r3, [r4, #0]
    14c8:	603d      	str	r5, [r7, #0]
    14ca:	4013      	ands	r3, r2
    14cc:	2b08      	cmp	r3, #8
    14ce:	d146      	bne.n	155e <_spi_m_sync_init+0x122>
    14d0:	4a45      	ldr	r2, [pc, #276]	; (15e8 <_spi_m_sync_init+0x1ac>)
    14d2:	4943      	ldr	r1, [pc, #268]	; (15e0 <_spi_m_sync_init+0x1a4>)
    14d4:	2001      	movs	r0, #1
    14d6:	4b3f      	ldr	r3, [pc, #252]	; (15d4 <_spi_m_sync_init+0x198>)
    14d8:	4798      	blx	r3
    14da:	7862      	ldrb	r2, [r4, #1]
    14dc:	7823      	ldrb	r3, [r4, #0]
    14de:	0212      	lsls	r2, r2, #8
    14e0:	431a      	orrs	r2, r3
    14e2:	78a3      	ldrb	r3, [r4, #2]
    14e4:	2103      	movs	r1, #3
    14e6:	041b      	lsls	r3, r3, #16
    14e8:	431a      	orrs	r2, r3
    14ea:	78e3      	ldrb	r3, [r4, #3]
    14ec:	0028      	movs	r0, r5
    14ee:	061b      	lsls	r3, r3, #24
    14f0:	4313      	orrs	r3, r2
    14f2:	4a3e      	ldr	r2, [pc, #248]	; (15ec <_spi_m_sync_init+0x1b0>)
    14f4:	4013      	ands	r3, r2
    14f6:	602b      	str	r3, [r5, #0]
    14f8:	47b0      	blx	r6
    14fa:	7962      	ldrb	r2, [r4, #5]
    14fc:	7923      	ldrb	r3, [r4, #4]
    14fe:	0212      	lsls	r2, r2, #8
    1500:	431a      	orrs	r2, r3
    1502:	79a3      	ldrb	r3, [r4, #6]
    1504:	2107      	movs	r1, #7
    1506:	041b      	lsls	r3, r3, #16
    1508:	431a      	orrs	r2, r3
    150a:	79e3      	ldrb	r3, [r4, #7]
    150c:	0028      	movs	r0, r5
    150e:	061b      	lsls	r3, r3, #24
    1510:	4313      	orrs	r3, r2
    1512:	4a37      	ldr	r2, [pc, #220]	; (15f0 <_spi_m_sync_init+0x1b4>)
    1514:	4013      	ands	r3, r2
    1516:	4a37      	ldr	r2, [pc, #220]	; (15f4 <_spi_m_sync_init+0x1b8>)
    1518:	4313      	orrs	r3, r2
    151a:	606b      	str	r3, [r5, #4]
    151c:	47b0      	blx	r6
    151e:	7a62      	ldrb	r2, [r4, #9]
    1520:	7a23      	ldrb	r3, [r4, #8]
    1522:	0212      	lsls	r2, r2, #8
    1524:	431a      	orrs	r2, r3
    1526:	7aa3      	ldrb	r3, [r4, #10]
    1528:	041b      	lsls	r3, r3, #16
    152a:	431a      	orrs	r2, r3
    152c:	7ae3      	ldrb	r3, [r4, #11]
    152e:	061b      	lsls	r3, r3, #24
    1530:	4313      	orrs	r3, r2
    1532:	626b      	str	r3, [r5, #36]	; 0x24
    1534:	002b      	movs	r3, r5
    1536:	7b62      	ldrb	r2, [r4, #13]
    1538:	3330      	adds	r3, #48	; 0x30
    153a:	701a      	strb	r2, [r3, #0]
    153c:	69eb      	ldr	r3, [r5, #28]
    153e:	2b00      	cmp	r3, #0
    1540:	d1fc      	bne.n	153c <_spi_m_sync_init+0x100>
    1542:	2207      	movs	r2, #7
    1544:	7923      	ldrb	r3, [r4, #4]
    1546:	2000      	movs	r0, #0
    1548:	4013      	ands	r3, r2
    154a:	1e5a      	subs	r2, r3, #1
    154c:	4193      	sbcs	r3, r2
    154e:	3301      	adds	r3, #1
    1550:	713b      	strb	r3, [r7, #4]
    1552:	7be3      	ldrb	r3, [r4, #15]
    1554:	7ba2      	ldrb	r2, [r4, #14]
    1556:	021b      	lsls	r3, r3, #8
    1558:	4313      	orrs	r3, r2
    155a:	80fb      	strh	r3, [r7, #6]
    155c:	bdfe      	pop	{r1, r2, r3, r4, r5, r6, r7, pc}
    155e:	4a26      	ldr	r2, [pc, #152]	; (15f8 <_spi_m_sync_init+0x1bc>)
    1560:	491f      	ldr	r1, [pc, #124]	; (15e0 <_spi_m_sync_init+0x1a4>)
    1562:	2001      	movs	r0, #1
    1564:	4b1b      	ldr	r3, [pc, #108]	; (15d4 <_spi_m_sync_init+0x198>)
    1566:	4798      	blx	r3
    1568:	7862      	ldrb	r2, [r4, #1]
    156a:	7823      	ldrb	r3, [r4, #0]
    156c:	0212      	lsls	r2, r2, #8
    156e:	431a      	orrs	r2, r3
    1570:	78a3      	ldrb	r3, [r4, #2]
    1572:	0028      	movs	r0, r5
    1574:	041b      	lsls	r3, r3, #16
    1576:	431a      	orrs	r2, r3
    1578:	78e3      	ldrb	r3, [r4, #3]
    157a:	2103      	movs	r1, #3
    157c:	061b      	lsls	r3, r3, #24
    157e:	4313      	orrs	r3, r2
    1580:	4a1a      	ldr	r2, [pc, #104]	; (15ec <_spi_m_sync_init+0x1b0>)
    1582:	4013      	ands	r3, r2
    1584:	602b      	str	r3, [r5, #0]
    1586:	47b0      	blx	r6
    1588:	7962      	ldrb	r2, [r4, #5]
    158a:	7923      	ldrb	r3, [r4, #4]
    158c:	0212      	lsls	r2, r2, #8
    158e:	431a      	orrs	r2, r3
    1590:	79a3      	ldrb	r3, [r4, #6]
    1592:	0028      	movs	r0, r5
    1594:	041b      	lsls	r3, r3, #16
    1596:	431a      	orrs	r2, r3
    1598:	79e3      	ldrb	r3, [r4, #7]
    159a:	2107      	movs	r1, #7
    159c:	061b      	lsls	r3, r3, #24
    159e:	4313      	orrs	r3, r2
    15a0:	4a16      	ldr	r2, [pc, #88]	; (15fc <_spi_m_sync_init+0x1c0>)
    15a2:	4013      	ands	r3, r2
    15a4:	2280      	movs	r2, #128	; 0x80
    15a6:	0292      	lsls	r2, r2, #10
    15a8:	4313      	orrs	r3, r2
    15aa:	606b      	str	r3, [r5, #4]
    15ac:	47b0      	blx	r6
    15ae:	7b23      	ldrb	r3, [r4, #12]
    15b0:	732b      	strb	r3, [r5, #12]
    15b2:	7b63      	ldrb	r3, [r4, #13]
    15b4:	3530      	adds	r5, #48	; 0x30
    15b6:	702b      	strb	r3, [r5, #0]
    15b8:	e7c3      	b.n	1542 <_spi_m_sync_init+0x106>
    15ba:	2400      	movs	r4, #0
    15bc:	42a0      	cmp	r0, r4
    15be:	d000      	beq.n	15c2 <_spi_m_sync_init+0x186>
    15c0:	e754      	b.n	146c <_spi_m_sync_init+0x30>
    15c2:	4a06      	ldr	r2, [pc, #24]	; (15dc <_spi_m_sync_init+0x1a0>)
    15c4:	4906      	ldr	r1, [pc, #24]	; (15e0 <_spi_m_sync_init+0x1a4>)
    15c6:	0038      	movs	r0, r7
    15c8:	4798      	blx	r3
    15ca:	200d      	movs	r0, #13
    15cc:	4240      	negs	r0, r0
    15ce:	e7c5      	b.n	155c <_spi_m_sync_init+0x120>
    15d0:	bdfff800 	.word	0xbdfff800
    15d4:	00000ea1 	.word	0x00000ea1
    15d8:	00002f28 	.word	0x00002f28
    15dc:	00000956 	.word	0x00000956
    15e0:	00002f73 	.word	0x00002f73
    15e4:	000011e5 	.word	0x000011e5
    15e8:	0000090b 	.word	0x0000090b
    15ec:	fffffefc 	.word	0xfffffefc
    15f0:	fffdddbf 	.word	0xfffdddbf
    15f4:	00020240 	.word	0x00020240
    15f8:	000008f7 	.word	0x000008f7
    15fc:	fffd1dbf 	.word	0xfffd1dbf

00001600 <_spi_m_async_init>:
    1600:	b570      	push	{r4, r5, r6, lr}
    1602:	4b0d      	ldr	r3, [pc, #52]	; (1638 <_spi_m_async_init+0x38>)
    1604:	0006      	movs	r6, r0
    1606:	000c      	movs	r4, r1
    1608:	4798      	blx	r3
    160a:	2800      	cmp	r0, #0
    160c:	db13      	blt.n	1636 <_spi_m_async_init+0x36>
    160e:	2500      	movs	r5, #0
    1610:	0031      	movs	r1, r6
    1612:	0020      	movs	r0, r4
    1614:	4b09      	ldr	r3, [pc, #36]	; (163c <_spi_m_async_init+0x3c>)
    1616:	4798      	blx	r3
    1618:	4b09      	ldr	r3, [pc, #36]	; (1640 <_spi_m_async_init+0x40>)
    161a:	6135      	str	r5, [r6, #16]
    161c:	18e4      	adds	r4, r4, r3
    161e:	0aa4      	lsrs	r4, r4, #10
    1620:	3409      	adds	r4, #9
    1622:	b264      	sxtb	r4, r4
    1624:	0020      	movs	r0, r4
    1626:	4b07      	ldr	r3, [pc, #28]	; (1644 <_spi_m_async_init+0x44>)
    1628:	60f5      	str	r5, [r6, #12]
    162a:	60b5      	str	r5, [r6, #8]
    162c:	4798      	blx	r3
    162e:	0020      	movs	r0, r4
    1630:	4b05      	ldr	r3, [pc, #20]	; (1648 <_spi_m_async_init+0x48>)
    1632:	4798      	blx	r3
    1634:	0028      	movs	r0, r5
    1636:	bd70      	pop	{r4, r5, r6, pc}
    1638:	0000143d 	.word	0x0000143d
    163c:	0000120d 	.word	0x0000120d
    1640:	bdfff800 	.word	0xbdfff800
    1644:	000011a9 	.word	0x000011a9
    1648:	000011c9 	.word	0x000011c9

0000164c <_spi_m_async_enable>:
    164c:	b510      	push	{r4, lr}
    164e:	1e04      	subs	r4, r0, #0
    1650:	d003      	beq.n	165a <_spi_m_async_enable+0xe>
    1652:	6800      	ldr	r0, [r0, #0]
    1654:	1e43      	subs	r3, r0, #1
    1656:	4198      	sbcs	r0, r3
    1658:	b2c0      	uxtb	r0, r0
    165a:	4a08      	ldr	r2, [pc, #32]	; (167c <_spi_m_async_enable+0x30>)
    165c:	4908      	ldr	r1, [pc, #32]	; (1680 <_spi_m_async_enable+0x34>)
    165e:	4b09      	ldr	r3, [pc, #36]	; (1684 <_spi_m_async_enable+0x38>)
    1660:	4798      	blx	r3
    1662:	6824      	ldr	r4, [r4, #0]
    1664:	4b08      	ldr	r3, [pc, #32]	; (1688 <_spi_m_async_enable+0x3c>)
    1666:	0020      	movs	r0, r4
    1668:	4798      	blx	r3
    166a:	4b08      	ldr	r3, [pc, #32]	; (168c <_spi_m_async_enable+0x40>)
    166c:	18e0      	adds	r0, r4, r3
    166e:	0a80      	lsrs	r0, r0, #10
    1670:	3009      	adds	r0, #9
    1672:	b240      	sxtb	r0, r0
    1674:	4b06      	ldr	r3, [pc, #24]	; (1690 <_spi_m_async_enable+0x44>)
    1676:	4798      	blx	r3
    1678:	2000      	movs	r0, #0
    167a:	bd10      	pop	{r4, pc}
    167c:	000009bf 	.word	0x000009bf
    1680:	00002f73 	.word	0x00002f73
    1684:	00000ea1 	.word	0x00000ea1
    1688:	00001241 	.word	0x00001241
    168c:	bdfff800 	.word	0xbdfff800
    1690:	00001191 	.word	0x00001191

00001694 <_spi_m_async_disable>:
    1694:	b510      	push	{r4, lr}
    1696:	1e04      	subs	r4, r0, #0
    1698:	d003      	beq.n	16a2 <_spi_m_async_disable+0xe>
    169a:	6800      	ldr	r0, [r0, #0]
    169c:	1e43      	subs	r3, r0, #1
    169e:	4198      	sbcs	r0, r3
    16a0:	b2c0      	uxtb	r0, r0
    16a2:	4a09      	ldr	r2, [pc, #36]	; (16c8 <_spi_m_async_disable+0x34>)
    16a4:	4909      	ldr	r1, [pc, #36]	; (16cc <_spi_m_async_disable+0x38>)
    16a6:	4b0a      	ldr	r3, [pc, #40]	; (16d0 <_spi_m_async_disable+0x3c>)
    16a8:	4798      	blx	r3
    16aa:	6824      	ldr	r4, [r4, #0]
    16ac:	4b09      	ldr	r3, [pc, #36]	; (16d4 <_spi_m_async_disable+0x40>)
    16ae:	0020      	movs	r0, r4
    16b0:	4798      	blx	r3
    16b2:	2387      	movs	r3, #135	; 0x87
    16b4:	7523      	strb	r3, [r4, #20]
    16b6:	4b08      	ldr	r3, [pc, #32]	; (16d8 <_spi_m_async_disable+0x44>)
    16b8:	18e0      	adds	r0, r4, r3
    16ba:	0a80      	lsrs	r0, r0, #10
    16bc:	3009      	adds	r0, #9
    16be:	b240      	sxtb	r0, r0
    16c0:	4b06      	ldr	r3, [pc, #24]	; (16dc <_spi_m_async_disable+0x48>)
    16c2:	4798      	blx	r3
    16c4:	2000      	movs	r0, #0
    16c6:	bd10      	pop	{r4, pc}
    16c8:	000009db 	.word	0x000009db
    16cc:	00002f73 	.word	0x00002f73
    16d0:	00000ea1 	.word	0x00000ea1
    16d4:	000012ed 	.word	0x000012ed
    16d8:	bdfff800 	.word	0xbdfff800
    16dc:	000011a9 	.word	0x000011a9

000016e0 <_spi_m_async_set_mode>:
    16e0:	b570      	push	{r4, r5, r6, lr}
    16e2:	0004      	movs	r4, r0
    16e4:	000d      	movs	r5, r1
    16e6:	2800      	cmp	r0, #0
    16e8:	d003      	beq.n	16f2 <_spi_m_async_set_mode+0x12>
    16ea:	6800      	ldr	r0, [r0, #0]
    16ec:	1e43      	subs	r3, r0, #1
    16ee:	4198      	sbcs	r0, r3
    16f0:	b2c0      	uxtb	r0, r0
    16f2:	229f      	movs	r2, #159	; 0x9f
    16f4:	4904      	ldr	r1, [pc, #16]	; (1708 <_spi_m_async_set_mode+0x28>)
    16f6:	0112      	lsls	r2, r2, #4
    16f8:	4b04      	ldr	r3, [pc, #16]	; (170c <_spi_m_async_set_mode+0x2c>)
    16fa:	4798      	blx	r3
    16fc:	0029      	movs	r1, r5
    16fe:	6820      	ldr	r0, [r4, #0]
    1700:	4b03      	ldr	r3, [pc, #12]	; (1710 <_spi_m_async_set_mode+0x30>)
    1702:	4798      	blx	r3
    1704:	bd70      	pop	{r4, r5, r6, pc}
    1706:	46c0      	nop			; (mov r8, r8)
    1708:	00002f73 	.word	0x00002f73
    170c:	00000ea1 	.word	0x00000ea1
    1710:	000012a9 	.word	0x000012a9

00001714 <_spi_m_async_enable_tx>:
    1714:	b570      	push	{r4, r5, r6, lr}
    1716:	6804      	ldr	r4, [r0, #0]
    1718:	000d      	movs	r5, r1
    171a:	0020      	movs	r0, r4
    171c:	1e43      	subs	r3, r0, #1
    171e:	4198      	sbcs	r0, r3
    1720:	4a06      	ldr	r2, [pc, #24]	; (173c <_spi_m_async_enable_tx+0x28>)
    1722:	4b07      	ldr	r3, [pc, #28]	; (1740 <_spi_m_async_enable_tx+0x2c>)
    1724:	b2c0      	uxtb	r0, r0
    1726:	4907      	ldr	r1, [pc, #28]	; (1744 <_spi_m_async_enable_tx+0x30>)
    1728:	4798      	blx	r3
    172a:	2301      	movs	r3, #1
    172c:	2d00      	cmp	r5, #0
    172e:	d002      	beq.n	1736 <_spi_m_async_enable_tx+0x22>
    1730:	75a3      	strb	r3, [r4, #22]
    1732:	2000      	movs	r0, #0
    1734:	bd70      	pop	{r4, r5, r6, pc}
    1736:	7523      	strb	r3, [r4, #20]
    1738:	e7fb      	b.n	1732 <_spi_m_async_enable_tx+0x1e>
    173a:	46c0      	nop			; (mov r8, r8)
    173c:	00000ae2 	.word	0x00000ae2
    1740:	00000ea1 	.word	0x00000ea1
    1744:	00002f73 	.word	0x00002f73

00001748 <_spi_m_async_enable_rx>:
    1748:	b5f8      	push	{r3, r4, r5, r6, r7, lr}
    174a:	4e0b      	ldr	r6, [pc, #44]	; (1778 <_spi_m_async_enable_rx+0x30>)
    174c:	6804      	ldr	r4, [r0, #0]
    174e:	4a0b      	ldr	r2, [pc, #44]	; (177c <_spi_m_async_enable_rx+0x34>)
    1750:	2001      	movs	r0, #1
    1752:	4d0b      	ldr	r5, [pc, #44]	; (1780 <_spi_m_async_enable_rx+0x38>)
    1754:	000f      	movs	r7, r1
    1756:	0031      	movs	r1, r6
    1758:	47a8      	blx	r5
    175a:	0020      	movs	r0, r4
    175c:	1e43      	subs	r3, r0, #1
    175e:	4198      	sbcs	r0, r3
    1760:	4a08      	ldr	r2, [pc, #32]	; (1784 <_spi_m_async_enable_rx+0x3c>)
    1762:	b2c0      	uxtb	r0, r0
    1764:	0031      	movs	r1, r6
    1766:	47a8      	blx	r5
    1768:	2304      	movs	r3, #4
    176a:	2f00      	cmp	r7, #0
    176c:	d002      	beq.n	1774 <_spi_m_async_enable_rx+0x2c>
    176e:	75a3      	strb	r3, [r4, #22]
    1770:	2000      	movs	r0, #0
    1772:	bdf8      	pop	{r3, r4, r5, r6, r7, pc}
    1774:	7523      	strb	r3, [r4, #20]
    1776:	e7fb      	b.n	1770 <_spi_m_async_enable_rx+0x28>
    1778:	00002f73 	.word	0x00002f73
    177c:	00000af6 	.word	0x00000af6
    1780:	00000ea1 	.word	0x00000ea1
    1784:	00000af7 	.word	0x00000af7

00001788 <_spi_m_async_enable_tx_complete>:
    1788:	b570      	push	{r4, r5, r6, lr}
    178a:	0004      	movs	r4, r0
    178c:	000d      	movs	r5, r1
    178e:	2800      	cmp	r0, #0
    1790:	d003      	beq.n	179a <_spi_m_async_enable_tx_complete+0x12>
    1792:	6800      	ldr	r0, [r0, #0]
    1794:	1e43      	subs	r3, r0, #1
    1796:	4198      	sbcs	r0, r3
    1798:	b2c0      	uxtb	r0, r0
    179a:	4a06      	ldr	r2, [pc, #24]	; (17b4 <_spi_m_async_enable_tx_complete+0x2c>)
    179c:	4b06      	ldr	r3, [pc, #24]	; (17b8 <_spi_m_async_enable_tx_complete+0x30>)
    179e:	4907      	ldr	r1, [pc, #28]	; (17bc <_spi_m_async_enable_tx_complete+0x34>)
    17a0:	4798      	blx	r3
    17a2:	6823      	ldr	r3, [r4, #0]
    17a4:	2202      	movs	r2, #2
    17a6:	2d00      	cmp	r5, #0
    17a8:	d002      	beq.n	17b0 <_spi_m_async_enable_tx_complete+0x28>
    17aa:	759a      	strb	r2, [r3, #22]
    17ac:	2000      	movs	r0, #0
    17ae:	bd70      	pop	{r4, r5, r6, pc}
    17b0:	751a      	strb	r2, [r3, #20]
    17b2:	e7fb      	b.n	17ac <_spi_m_async_enable_tx_complete+0x24>
    17b4:	00000b09 	.word	0x00000b09
    17b8:	00000ea1 	.word	0x00000ea1
    17bc:	00002f73 	.word	0x00002f73

000017c0 <_spi_m_async_write_one>:
    17c0:	b570      	push	{r4, r5, r6, lr}
    17c2:	0004      	movs	r4, r0
    17c4:	000d      	movs	r5, r1
    17c6:	2800      	cmp	r0, #0
    17c8:	d003      	beq.n	17d2 <_spi_m_async_write_one+0x12>
    17ca:	6800      	ldr	r0, [r0, #0]
    17cc:	1e43      	subs	r3, r0, #1
    17ce:	4198      	sbcs	r0, r3
    17d0:	b2c0      	uxtb	r0, r0
    17d2:	4a04      	ldr	r2, [pc, #16]	; (17e4 <_spi_m_async_write_one+0x24>)
    17d4:	4904      	ldr	r1, [pc, #16]	; (17e8 <_spi_m_async_write_one+0x28>)
    17d6:	4b05      	ldr	r3, [pc, #20]	; (17ec <_spi_m_async_write_one+0x2c>)
    17d8:	4798      	blx	r3
    17da:	6823      	ldr	r3, [r4, #0]
    17dc:	2000      	movs	r0, #0
    17de:	629d      	str	r5, [r3, #40]	; 0x28
    17e0:	bd70      	pop	{r4, r5, r6, pc}
    17e2:	46c0      	nop			; (mov r8, r8)
    17e4:	00000b1b 	.word	0x00000b1b
    17e8:	00002f73 	.word	0x00002f73
    17ec:	00000ea1 	.word	0x00000ea1

000017f0 <_spi_m_async_read_one>:
    17f0:	b510      	push	{r4, lr}
    17f2:	1e04      	subs	r4, r0, #0
    17f4:	d003      	beq.n	17fe <_spi_m_async_read_one+0xe>
    17f6:	6800      	ldr	r0, [r0, #0]
    17f8:	1e43      	subs	r3, r0, #1
    17fa:	4198      	sbcs	r0, r3
    17fc:	b2c0      	uxtb	r0, r0
    17fe:	4a04      	ldr	r2, [pc, #16]	; (1810 <_spi_m_async_read_one+0x20>)
    1800:	4904      	ldr	r1, [pc, #16]	; (1814 <_spi_m_async_read_one+0x24>)
    1802:	4b05      	ldr	r3, [pc, #20]	; (1818 <_spi_m_async_read_one+0x28>)
    1804:	4798      	blx	r3
    1806:	6823      	ldr	r3, [r4, #0]
    1808:	6a98      	ldr	r0, [r3, #40]	; 0x28
    180a:	b280      	uxth	r0, r0
    180c:	bd10      	pop	{r4, pc}
    180e:	46c0      	nop			; (mov r8, r8)
    1810:	00000b36 	.word	0x00000b36
    1814:	00002f73 	.word	0x00002f73
    1818:	00000ea1 	.word	0x00000ea1

0000181c <_spi_m_async_register_callback>:
    181c:	2300      	movs	r3, #0
    181e:	b570      	push	{r4, r5, r6, lr}
    1820:	0004      	movs	r4, r0
    1822:	000d      	movs	r5, r1
    1824:	0016      	movs	r6, r2
    1826:	4298      	cmp	r0, r3
    1828:	d003      	beq.n	1832 <_spi_m_async_register_callback+0x16>
    182a:	2203      	movs	r2, #3
    182c:	428a      	cmp	r2, r1
    182e:	415b      	adcs	r3, r3
    1830:	b2d8      	uxtb	r0, r3
    1832:	00ad      	lsls	r5, r5, #2
    1834:	1964      	adds	r4, r4, r5
    1836:	4a03      	ldr	r2, [pc, #12]	; (1844 <_spi_m_async_register_callback+0x28>)
    1838:	4903      	ldr	r1, [pc, #12]	; (1848 <_spi_m_async_register_callback+0x2c>)
    183a:	4b04      	ldr	r3, [pc, #16]	; (184c <_spi_m_async_register_callback+0x30>)
    183c:	4798      	blx	r3
    183e:	60a6      	str	r6, [r4, #8]
    1840:	2000      	movs	r0, #0
    1842:	bd70      	pop	{r4, r5, r6, pc}
    1844:	00000b4f 	.word	0x00000b4f
    1848:	00002f73 	.word	0x00002f73
    184c:	00000ea1 	.word	0x00000ea1

00001850 <_spi_m_async_set_irq_state>:
    1850:	b570      	push	{r4, r5, r6, lr}
    1852:	0004      	movs	r4, r0
    1854:	0015      	movs	r5, r2
    1856:	1e43      	subs	r3, r0, #1
    1858:	4198      	sbcs	r0, r3
    185a:	22b9      	movs	r2, #185	; 0xb9
    185c:	000e      	movs	r6, r1
    185e:	b2c0      	uxtb	r0, r0
    1860:	0112      	lsls	r2, r2, #4
    1862:	4906      	ldr	r1, [pc, #24]	; (187c <_spi_m_async_set_irq_state+0x2c>)
    1864:	4b06      	ldr	r3, [pc, #24]	; (1880 <_spi_m_async_set_irq_state+0x30>)
    1866:	4798      	blx	r3
    1868:	2e03      	cmp	r6, #3
    186a:	d104      	bne.n	1876 <_spi_m_async_set_irq_state+0x26>
    186c:	6823      	ldr	r3, [r4, #0]
    186e:	2280      	movs	r2, #128	; 0x80
    1870:	2d00      	cmp	r5, #0
    1872:	d101      	bne.n	1878 <_spi_m_async_set_irq_state+0x28>
    1874:	751a      	strb	r2, [r3, #20]
    1876:	bd70      	pop	{r4, r5, r6, pc}
    1878:	759a      	strb	r2, [r3, #22]
    187a:	e7fc      	b.n	1876 <_spi_m_async_set_irq_state+0x26>
    187c:	00002f73 	.word	0x00002f73
    1880:	00000ea1 	.word	0x00000ea1

00001884 <_sysctrl_init_sources>:
    1884:	4b0d      	ldr	r3, [pc, #52]	; (18bc <_sysctrl_init_sources+0x38>)
    1886:	480e      	ldr	r0, [pc, #56]	; (18c0 <_sysctrl_init_sources+0x3c>)
    1888:	6a19      	ldr	r1, [r3, #32]
    188a:	6a1a      	ldr	r2, [r3, #32]
    188c:	4001      	ands	r1, r0
    188e:	2002      	movs	r0, #2
    1890:	0f92      	lsrs	r2, r2, #30
    1892:	0792      	lsls	r2, r2, #30
    1894:	4302      	orrs	r2, r0
    1896:	430a      	orrs	r2, r1
    1898:	211f      	movs	r1, #31
    189a:	621a      	str	r2, [r3, #32]
    189c:	699a      	ldr	r2, [r3, #24]
    189e:	4310      	orrs	r0, r2
    18a0:	6198      	str	r0, [r3, #24]
    18a2:	7f1a      	ldrb	r2, [r3, #28]
    18a4:	400a      	ands	r2, r1
    18a6:	771a      	strb	r2, [r3, #28]
    18a8:	2208      	movs	r2, #8
    18aa:	68d9      	ldr	r1, [r3, #12]
    18ac:	4211      	tst	r1, r2
    18ae:	d0fc      	beq.n	18aa <_sysctrl_init_sources+0x26>
    18b0:	2280      	movs	r2, #128	; 0x80
    18b2:	6a19      	ldr	r1, [r3, #32]
    18b4:	430a      	orrs	r2, r1
    18b6:	621a      	str	r2, [r3, #32]
    18b8:	4770      	bx	lr
    18ba:	46c0      	nop			; (mov r8, r8)
    18bc:	40000800 	.word	0x40000800
    18c0:	0fff0000 	.word	0x0fff0000

000018c4 <_sysctrl_init_referenced_generators>:
    18c4:	2102      	movs	r1, #2
    18c6:	4a02      	ldr	r2, [pc, #8]	; (18d0 <_sysctrl_init_referenced_generators+0xc>)
    18c8:	6993      	ldr	r3, [r2, #24]
    18ca:	438b      	bics	r3, r1
    18cc:	6193      	str	r3, [r2, #24]
    18ce:	4770      	bx	lr
    18d0:	40000800 	.word	0x40000800

000018d4 <main>:
    18d4:	b510      	push	{r4, lr}
    18d6:	4b10      	ldr	r3, [pc, #64]	; (1918 <main+0x44>)
    18d8:	4798      	blx	r3
    18da:	4b10      	ldr	r3, [pc, #64]	; (191c <main+0x48>)
    18dc:	4798      	blx	r3
    18de:	4810      	ldr	r0, [pc, #64]	; (1920 <main+0x4c>)
    18e0:	4c10      	ldr	r4, [pc, #64]	; (1924 <main+0x50>)
    18e2:	47a0      	blx	r4
    18e4:	2800      	cmp	r0, #0
    18e6:	d107      	bne.n	18f8 <main+0x24>
    18e8:	480f      	ldr	r0, [pc, #60]	; (1928 <main+0x54>)
    18ea:	47a0      	blx	r4
    18ec:	2800      	cmp	r0, #0
    18ee:	d103      	bne.n	18f8 <main+0x24>
    18f0:	480e      	ldr	r0, [pc, #56]	; (192c <main+0x58>)
    18f2:	47a0      	blx	r4
    18f4:	2800      	cmp	r0, #0
    18f6:	d000      	beq.n	18fa <main+0x26>
    18f8:	e7fe      	b.n	18f8 <main+0x24>
    18fa:	4b0d      	ldr	r3, [pc, #52]	; (1930 <main+0x5c>)
    18fc:	2480      	movs	r4, #128	; 0x80
    18fe:	4798      	blx	r3
    1900:	0064      	lsls	r4, r4, #1
    1902:	4b0c      	ldr	r3, [pc, #48]	; (1934 <main+0x60>)
    1904:	601c      	str	r4, [r3, #0]
    1906:	601c      	str	r4, [r3, #0]
    1908:	601c      	str	r4, [r3, #0]
    190a:	601c      	str	r4, [r3, #0]
    190c:	4b0a      	ldr	r3, [pc, #40]	; (1938 <main+0x64>)
    190e:	601c      	str	r4, [r3, #0]
    1910:	4b0a      	ldr	r3, [pc, #40]	; (193c <main+0x68>)
    1912:	4798      	blx	r3
    1914:	e7f5      	b.n	1902 <main+0x2e>
    1916:	46c0      	nop			; (mov r8, r8)
    1918:	00000115 	.word	0x00000115
    191c:	0000216d 	.word	0x0000216d
    1920:	20000120 	.word	0x20000120
    1924:	00002011 	.word	0x00002011
    1928:	200000f0 	.word	0x200000f0
    192c:	20000008 	.word	0x20000008
    1930:	00002049 	.word	0x00002049
    1934:	60000098 	.word	0x60000098
    1938:	60000094 	.word	0x60000094
    193c:	0000206d 	.word	0x0000206d

00001940 <complete_cb_PS_SPI>:
    1940:	2201      	movs	r2, #1
    1942:	4b01      	ldr	r3, [pc, #4]	; (1948 <complete_cb_PS_SPI+0x8>)
    1944:	701a      	strb	r2, [r3, #0]
    1946:	4770      	bx	lr
    1948:	20000000 	.word	0x20000000

0000194c <PS_start_spi_transfer>:
    194c:	221f      	movs	r2, #31
    194e:	2301      	movs	r3, #1
    1950:	4002      	ands	r2, r0
    1952:	4093      	lsls	r3, r2
    1954:	22c0      	movs	r2, #192	; 0xc0
    1956:	0940      	lsrs	r0, r0, #5
    1958:	05d2      	lsls	r2, r2, #23
    195a:	01c0      	lsls	r0, r0, #7
    195c:	1880      	adds	r0, r0, r2
    195e:	2200      	movs	r2, #0
    1960:	b510      	push	{r4, lr}
    1962:	6143      	str	r3, [r0, #20]
    1964:	4b04      	ldr	r3, [pc, #16]	; (1978 <PS_start_spi_transfer+0x2c>)
    1966:	4c05      	ldr	r4, [pc, #20]	; (197c <PS_start_spi_transfer+0x30>)
    1968:	701a      	strb	r2, [r3, #0]
    196a:	4a05      	ldr	r2, [pc, #20]	; (1980 <PS_start_spi_transfer+0x34>)
    196c:	b28b      	uxth	r3, r1
    196e:	0011      	movs	r1, r2
    1970:	4804      	ldr	r0, [pc, #16]	; (1984 <PS_start_spi_transfer+0x38>)
    1972:	312c      	adds	r1, #44	; 0x2c
    1974:	47a0      	blx	r4
    1976:	bd10      	pop	{r4, pc}
    1978:	20000000 	.word	0x20000000
    197c:	00000af1 	.word	0x00000af1
    1980:	200001ac 	.word	0x200001ac
    1984:	2000034c 	.word	0x2000034c

00001988 <ps_spi_reset>:
    1988:	b510      	push	{r4, lr}
    198a:	4c07      	ldr	r4, [pc, #28]	; (19a8 <ps_spi_reset+0x20>)
    198c:	4a07      	ldr	r2, [pc, #28]	; (19ac <ps_spi_reset+0x24>)
    198e:	2100      	movs	r1, #0
    1990:	0020      	movs	r0, r4
    1992:	4b07      	ldr	r3, [pc, #28]	; (19b0 <ps_spi_reset+0x28>)
    1994:	4798      	blx	r3
    1996:	0020      	movs	r0, r4
    1998:	4b06      	ldr	r3, [pc, #24]	; (19b4 <ps_spi_reset+0x2c>)
    199a:	4798      	blx	r3
    199c:	2201      	movs	r2, #1
    199e:	4b06      	ldr	r3, [pc, #24]	; (19b8 <ps_spi_reset+0x30>)
    19a0:	3358      	adds	r3, #88	; 0x58
    19a2:	701a      	strb	r2, [r3, #0]
    19a4:	bd10      	pop	{r4, pc}
    19a6:	46c0      	nop			; (mov r8, r8)
    19a8:	2000034c 	.word	0x2000034c
    19ac:	00001941 	.word	0x00001941
    19b0:	00000b59 	.word	0x00000b59
    19b4:	00000a4d 	.word	0x00000a4d
    19b8:	200001ac 	.word	0x200001ac

000019bc <PS_chip_deselect>:
    19bc:	221f      	movs	r2, #31
    19be:	2301      	movs	r3, #1
    19c0:	4002      	ands	r2, r0
    19c2:	4093      	lsls	r3, r2
    19c4:	22c0      	movs	r2, #192	; 0xc0
    19c6:	0940      	lsrs	r0, r0, #5
    19c8:	05d2      	lsls	r2, r2, #23
    19ca:	01c0      	lsls	r0, r0, #7
    19cc:	1880      	adds	r0, r0, r2
    19ce:	6183      	str	r3, [r0, #24]
    19d0:	4770      	bx	lr
	...

000019d4 <txfr_block>:
    19d4:	b28b      	uxth	r3, r1
    19d6:	b510      	push	{r4, lr}
    19d8:	2403      	movs	r4, #3
    19da:	2bff      	cmp	r3, #255	; 0xff
    19dc:	d900      	bls.n	19e0 <txfr_block+0xc>
    19de:	3408      	adds	r4, #8
    19e0:	4b03      	ldr	r3, [pc, #12]	; (19f0 <txfr_block+0x1c>)
    19e2:	332c      	adds	r3, #44	; 0x2c
    19e4:	701c      	strb	r4, [r3, #0]
    19e6:	7059      	strb	r1, [r3, #1]
    19e8:	0011      	movs	r1, r2
    19ea:	4b02      	ldr	r3, [pc, #8]	; (19f4 <txfr_block+0x20>)
    19ec:	4798      	blx	r3
    19ee:	bd10      	pop	{r4, pc}
    19f0:	200001ac 	.word	0x200001ac
    19f4:	0000194d 	.word	0x0000194d

000019f8 <bytes2float32>:
    19f8:	b510      	push	{r4, lr}
    19fa:	4906      	ldr	r1, [pc, #24]	; (1a14 <bytes2float32+0x1c>)
    19fc:	180a      	adds	r2, r1, r0
    19fe:	78d3      	ldrb	r3, [r2, #3]
    1a00:	7894      	ldrb	r4, [r2, #2]
    1a02:	7852      	ldrb	r2, [r2, #1]
    1a04:	0424      	lsls	r4, r4, #16
    1a06:	061b      	lsls	r3, r3, #24
    1a08:	191b      	adds	r3, r3, r4
    1a0a:	0212      	lsls	r2, r2, #8
    1a0c:	5c08      	ldrb	r0, [r1, r0]
    1a0e:	189b      	adds	r3, r3, r2
    1a10:	1818      	adds	r0, r3, r0
    1a12:	bd10      	pop	{r4, pc}
    1a14:	200001ac 	.word	0x200001ac

00001a18 <sort_PS_EEPROM_info>:
    1a18:	b570      	push	{r4, r5, r6, lr}
    1a1a:	0004      	movs	r4, r0
    1a1c:	2002      	movs	r0, #2
    1a1e:	4d11      	ldr	r5, [pc, #68]	; (1a64 <sort_PS_EEPROM_info+0x4c>)
    1a20:	3001      	adds	r0, #1
    1a22:	1e43      	subs	r3, r0, #1
    1a24:	5cea      	ldrb	r2, [r5, r3]
    1a26:	1ec3      	subs	r3, r0, #3
    1a28:	54e2      	strb	r2, [r4, r3]
    1a2a:	2812      	cmp	r0, #18
    1a2c:	d1f8      	bne.n	1a20 <sort_PS_EEPROM_info+0x8>
    1a2e:	3001      	adds	r0, #1
    1a30:	1e43      	subs	r3, r0, #1
    1a32:	5cea      	ldrb	r2, [r5, r3]
    1a34:	1ec3      	subs	r3, r0, #3
    1a36:	54e2      	strb	r2, [r4, r3]
    1a38:	281d      	cmp	r0, #29
    1a3a:	d1f8      	bne.n	1a2e <sort_PS_EEPROM_info+0x16>
    1a3c:	4e0a      	ldr	r6, [pc, #40]	; (1a68 <sort_PS_EEPROM_info+0x50>)
    1a3e:	47b0      	blx	r6
    1a40:	61e0      	str	r0, [r4, #28]
    1a42:	2021      	movs	r0, #33	; 0x21
    1a44:	47b0      	blx	r6
    1a46:	2325      	movs	r3, #37	; 0x25
    1a48:	6220      	str	r0, [r4, #32]
    1a4a:	3301      	adds	r3, #1
    1a4c:	1e5a      	subs	r2, r3, #1
    1a4e:	5ca9      	ldrb	r1, [r5, r2]
    1a50:	1e9a      	subs	r2, r3, #2
    1a52:	54a1      	strb	r1, [r4, r2]
    1a54:	2b2a      	cmp	r3, #42	; 0x2a
    1a56:	d1f8      	bne.n	1a4a <sort_PS_EEPROM_info+0x32>
    1a58:	352a      	adds	r5, #42	; 0x2a
    1a5a:	782b      	ldrb	r3, [r5, #0]
    1a5c:	3429      	adds	r4, #41	; 0x29
    1a5e:	7023      	strb	r3, [r4, #0]
    1a60:	bd70      	pop	{r4, r5, r6, pc}
    1a62:	46c0      	nop			; (mov r8, r8)
    1a64:	200001ac 	.word	0x200001ac
    1a68:	000019f9 	.word	0x000019f9

00001a6c <sort_PS_EEPROM_coeffs>:
    1a6c:	b5f0      	push	{r4, r5, r6, r7, lr}
    1a6e:	0006      	movs	r6, r0
    1a70:	000c      	movs	r4, r1
    1a72:	2502      	movs	r5, #2
    1a74:	4f17      	ldr	r7, [pc, #92]	; (1ad4 <sort_PS_EEPROM_coeffs+0x68>)
    1a76:	b087      	sub	sp, #28
    1a78:	0028      	movs	r0, r5
    1a7a:	47b8      	blx	r7
    1a7c:	1eab      	subs	r3, r5, #2
    1a7e:	aa02      	add	r2, sp, #8
    1a80:	3504      	adds	r5, #4
    1a82:	50d0      	str	r0, [r2, r3]
    1a84:	2d12      	cmp	r5, #18
    1a86:	d1f7      	bne.n	1a78 <sort_PS_EEPROM_coeffs+0xc>
    1a88:	2e02      	cmp	r6, #2
    1a8a:	d00e      	beq.n	1aaa <sort_PS_EEPROM_coeffs+0x3e>
    1a8c:	2e03      	cmp	r6, #3
    1a8e:	d016      	beq.n	1abe <sort_PS_EEPROM_coeffs+0x52>
    1a90:	2e01      	cmp	r6, #1
    1a92:	d108      	bne.n	1aa6 <sort_PS_EEPROM_coeffs+0x3a>
    1a94:	9b02      	ldr	r3, [sp, #8]
    1a96:	6363      	str	r3, [r4, #52]	; 0x34
    1a98:	9b03      	ldr	r3, [sp, #12]
    1a9a:	63a3      	str	r3, [r4, #56]	; 0x38
    1a9c:	9b04      	ldr	r3, [sp, #16]
    1a9e:	9301      	str	r3, [sp, #4]
    1aa0:	63e3      	str	r3, [r4, #60]	; 0x3c
    1aa2:	9b05      	ldr	r3, [sp, #20]
    1aa4:	6423      	str	r3, [r4, #64]	; 0x40
    1aa6:	b007      	add	sp, #28
    1aa8:	bdf0      	pop	{r4, r5, r6, r7, pc}
    1aaa:	9b02      	ldr	r3, [sp, #8]
    1aac:	6463      	str	r3, [r4, #68]	; 0x44
    1aae:	9b03      	ldr	r3, [sp, #12]
    1ab0:	64a3      	str	r3, [r4, #72]	; 0x48
    1ab2:	9b04      	ldr	r3, [sp, #16]
    1ab4:	9301      	str	r3, [sp, #4]
    1ab6:	64e3      	str	r3, [r4, #76]	; 0x4c
    1ab8:	9b05      	ldr	r3, [sp, #20]
    1aba:	6523      	str	r3, [r4, #80]	; 0x50
    1abc:	e7f3      	b.n	1aa6 <sort_PS_EEPROM_coeffs+0x3a>
    1abe:	9b02      	ldr	r3, [sp, #8]
    1ac0:	6563      	str	r3, [r4, #84]	; 0x54
    1ac2:	9b03      	ldr	r3, [sp, #12]
    1ac4:	65a3      	str	r3, [r4, #88]	; 0x58
    1ac6:	9b04      	ldr	r3, [sp, #16]
    1ac8:	9301      	str	r3, [sp, #4]
    1aca:	65e3      	str	r3, [r4, #92]	; 0x5c
    1acc:	9b05      	ldr	r3, [sp, #20]
    1ace:	6623      	str	r3, [r4, #96]	; 0x60
    1ad0:	e7e9      	b.n	1aa6 <sort_PS_EEPROM_coeffs+0x3a>
    1ad2:	46c0      	nop			; (mov r8, r8)
    1ad4:	000019f9 	.word	0x000019f9

00001ad8 <get_coef>:
    1ad8:	0003      	movs	r3, r0
    1ada:	b510      	push	{r4, lr}
    1adc:	0008      	movs	r0, r1
    1ade:	2b02      	cmp	r3, #2
    1ae0:	d008      	beq.n	1af4 <get_coef+0x1c>
    1ae2:	2b03      	cmp	r3, #3
    1ae4:	d009      	beq.n	1afa <get_coef+0x22>
    1ae6:	2b01      	cmp	r3, #1
    1ae8:	d103      	bne.n	1af2 <get_coef+0x1a>
    1aea:	2212      	movs	r2, #18
    1aec:	2182      	movs	r1, #130	; 0x82
    1aee:	4b05      	ldr	r3, [pc, #20]	; (1b04 <get_coef+0x2c>)
    1af0:	4798      	blx	r3
    1af2:	bd10      	pop	{r4, pc}
    1af4:	2212      	movs	r2, #18
    1af6:	21d2      	movs	r1, #210	; 0xd2
    1af8:	e7f9      	b.n	1aee <get_coef+0x16>
    1afa:	2191      	movs	r1, #145	; 0x91
    1afc:	2212      	movs	r2, #18
    1afe:	0049      	lsls	r1, r1, #1
    1b00:	e7f5      	b.n	1aee <get_coef+0x16>
    1b02:	46c0      	nop			; (mov r8, r8)
    1b04:	000019d5 	.word	0x000019d5

00001b08 <use_coef>:
    1b08:	0003      	movs	r3, r0
    1b0a:	b5f0      	push	{r4, r5, r6, r7, lr}
    1b0c:	3366      	adds	r3, #102	; 0x66
    1b0e:	b085      	sub	sp, #20
    1b10:	0004      	movs	r4, r0
    1b12:	4e34      	ldr	r6, [pc, #208]	; (1be4 <use_coef+0xdc>)
    1b14:	2000      	movs	r0, #0
    1b16:	5e18      	ldrsh	r0, [r3, r0]
    1b18:	47b0      	blx	r6
    1b1a:	4d33      	ldr	r5, [pc, #204]	; (1be8 <use_coef+0xe0>)
    1b1c:	9001      	str	r0, [sp, #4]
    1b1e:	1c01      	adds	r1, r0, #0
    1b20:	47a8      	blx	r5
    1b22:	1c01      	adds	r1, r0, #0
    1b24:	9002      	str	r0, [sp, #8]
    1b26:	9801      	ldr	r0, [sp, #4]
    1b28:	47a8      	blx	r5
    1b2a:	1c07      	adds	r7, r0, #0
    1b2c:	6ee0      	ldr	r0, [r4, #108]	; 0x6c
    1b2e:	47b0      	blx	r6
    1b30:	6c21      	ldr	r1, [r4, #64]	; 0x40
    1b32:	9003      	str	r0, [sp, #12]
    1b34:	1c38      	adds	r0, r7, #0
    1b36:	47a8      	blx	r5
    1b38:	6be1      	ldr	r1, [r4, #60]	; 0x3c
    1b3a:	1c06      	adds	r6, r0, #0
    1b3c:	9802      	ldr	r0, [sp, #8]
    1b3e:	47a8      	blx	r5
    1b40:	4b2a      	ldr	r3, [pc, #168]	; (1bec <use_coef+0xe4>)
    1b42:	1c01      	adds	r1, r0, #0
    1b44:	1c30      	adds	r0, r6, #0
    1b46:	4798      	blx	r3
    1b48:	6ba1      	ldr	r1, [r4, #56]	; 0x38
    1b4a:	1c06      	adds	r6, r0, #0
    1b4c:	9801      	ldr	r0, [sp, #4]
    1b4e:	47a8      	blx	r5
    1b50:	4b26      	ldr	r3, [pc, #152]	; (1bec <use_coef+0xe4>)
    1b52:	1c01      	adds	r1, r0, #0
    1b54:	1c30      	adds	r0, r6, #0
    1b56:	4798      	blx	r3
    1b58:	6b61      	ldr	r1, [r4, #52]	; 0x34
    1b5a:	4b24      	ldr	r3, [pc, #144]	; (1bec <use_coef+0xe4>)
    1b5c:	4798      	blx	r3
    1b5e:	4b24      	ldr	r3, [pc, #144]	; (1bf0 <use_coef+0xe8>)
    1b60:	1c01      	adds	r1, r0, #0
    1b62:	9803      	ldr	r0, [sp, #12]
    1b64:	4798      	blx	r3
    1b66:	6d21      	ldr	r1, [r4, #80]	; 0x50
    1b68:	1c06      	adds	r6, r0, #0
    1b6a:	1c38      	adds	r0, r7, #0
    1b6c:	47a8      	blx	r5
    1b6e:	6ce1      	ldr	r1, [r4, #76]	; 0x4c
    1b70:	1c07      	adds	r7, r0, #0
    1b72:	9802      	ldr	r0, [sp, #8]
    1b74:	47a8      	blx	r5
    1b76:	4b1d      	ldr	r3, [pc, #116]	; (1bec <use_coef+0xe4>)
    1b78:	1c01      	adds	r1, r0, #0
    1b7a:	1c38      	adds	r0, r7, #0
    1b7c:	4798      	blx	r3
    1b7e:	6ca1      	ldr	r1, [r4, #72]	; 0x48
    1b80:	1c07      	adds	r7, r0, #0
    1b82:	9801      	ldr	r0, [sp, #4]
    1b84:	47a8      	blx	r5
    1b86:	4b19      	ldr	r3, [pc, #100]	; (1bec <use_coef+0xe4>)
    1b88:	1c01      	adds	r1, r0, #0
    1b8a:	1c38      	adds	r0, r7, #0
    1b8c:	4798      	blx	r3
    1b8e:	6c61      	ldr	r1, [r4, #68]	; 0x44
    1b90:	4b16      	ldr	r3, [pc, #88]	; (1bec <use_coef+0xe4>)
    1b92:	4798      	blx	r3
    1b94:	4b17      	ldr	r3, [pc, #92]	; (1bf4 <use_coef+0xec>)
    1b96:	1c01      	adds	r1, r0, #0
    1b98:	1c30      	adds	r0, r6, #0
    1b9a:	4798      	blx	r3
    1b9c:	6e21      	ldr	r1, [r4, #96]	; 0x60
    1b9e:	1c06      	adds	r6, r0, #0
    1ba0:	47a8      	blx	r5
    1ba2:	1c31      	adds	r1, r6, #0
    1ba4:	47a8      	blx	r5
    1ba6:	1c31      	adds	r1, r6, #0
    1ba8:	47a8      	blx	r5
    1baa:	6de1      	ldr	r1, [r4, #92]	; 0x5c
    1bac:	1c07      	adds	r7, r0, #0
    1bae:	1c30      	adds	r0, r6, #0
    1bb0:	47a8      	blx	r5
    1bb2:	1c31      	adds	r1, r6, #0
    1bb4:	47a8      	blx	r5
    1bb6:	4b0d      	ldr	r3, [pc, #52]	; (1bec <use_coef+0xe4>)
    1bb8:	1c01      	adds	r1, r0, #0
    1bba:	1c38      	adds	r0, r7, #0
    1bbc:	4798      	blx	r3
    1bbe:	6da1      	ldr	r1, [r4, #88]	; 0x58
    1bc0:	1c07      	adds	r7, r0, #0
    1bc2:	1c30      	adds	r0, r6, #0
    1bc4:	47a8      	blx	r5
    1bc6:	4b09      	ldr	r3, [pc, #36]	; (1bec <use_coef+0xe4>)
    1bc8:	1c01      	adds	r1, r0, #0
    1bca:	1c38      	adds	r0, r7, #0
    1bcc:	4798      	blx	r3
    1bce:	6d61      	ldr	r1, [r4, #84]	; 0x54
    1bd0:	4b06      	ldr	r3, [pc, #24]	; (1bec <use_coef+0xe4>)
    1bd2:	4798      	blx	r3
    1bd4:	69e1      	ldr	r1, [r4, #28]
    1bd6:	47a8      	blx	r5
    1bd8:	6a21      	ldr	r1, [r4, #32]
    1bda:	4b04      	ldr	r3, [pc, #16]	; (1bec <use_coef+0xe4>)
    1bdc:	4798      	blx	r3
    1bde:	6720      	str	r0, [r4, #112]	; 0x70
    1be0:	b005      	add	sp, #20
    1be2:	bdf0      	pop	{r4, r5, r6, r7, pc}
    1be4:	00002d05 	.word	0x00002d05
    1be8:	0000278d 	.word	0x0000278d
    1bec:	000021d9 	.word	0x000021d9
    1bf0:	000029cd 	.word	0x000029cd
    1bf4:	000024fd 	.word	0x000024fd

00001bf8 <ps_spi_poll>:
    1bf8:	b5f8      	push	{r3, r4, r5, r6, r7, lr}
    1bfa:	4dc1      	ldr	r5, [pc, #772]	; (1f00 <ps_spi_poll+0x308>)
    1bfc:	002b      	movs	r3, r5
    1bfe:	3358      	adds	r3, #88	; 0x58
    1c00:	781b      	ldrb	r3, [r3, #0]
    1c02:	2b00      	cmp	r3, #0
    1c04:	d059      	beq.n	1cba <ps_spi_poll+0xc2>
    1c06:	4ebf      	ldr	r6, [pc, #764]	; (1f04 <ps_spi_poll+0x30c>)
    1c08:	7833      	ldrb	r3, [r6, #0]
    1c0a:	2b00      	cmp	r3, #0
    1c0c:	d055      	beq.n	1cba <ps_spi_poll+0xc2>
    1c0e:	4cbe      	ldr	r4, [pc, #760]	; (1f08 <ps_spi_poll+0x310>)
    1c10:	0023      	movs	r3, r4
    1c12:	3344      	adds	r3, #68	; 0x44
    1c14:	781f      	ldrb	r7, [r3, #0]
    1c16:	2f14      	cmp	r7, #20
    1c18:	d900      	bls.n	1c1c <ps_spi_poll+0x24>
    1c1a:	e1c7      	b.n	1fac <ps_spi_poll+0x3b4>
    1c1c:	0038      	movs	r0, r7
    1c1e:	f000 fac7 	bl	21b0 <__gnu_thumb1_case_uhi>
    1c22:	0015      	.short	0x0015
    1c24:	00340029 	.word	0x00340029
    1c28:	004d003b 	.word	0x004d003b
    1c2c:	00670055 	.word	0x00670055
    1c30:	00840070 	.word	0x00840070
    1c34:	004c008e 	.word	0x004c008e
    1c38:	00e300ca 	.word	0x00e300ca
    1c3c:	010800f0 	.word	0x010800f0
    1c40:	0136011d 	.word	0x0136011d
    1c44:	01610158 	.word	0x01610158
    1c48:	01b20193 	.word	0x01b20193
    1c4c:	7873      	ldrb	r3, [r6, #1]
    1c4e:	355c      	adds	r5, #92	; 0x5c
    1c50:	2b01      	cmp	r3, #1
    1c52:	d001      	beq.n	1c58 <ps_spi_poll+0x60>
    1c54:	4dad      	ldr	r5, [pc, #692]	; (1f0c <ps_spi_poll+0x314>)
    1c56:	3550      	adds	r5, #80	; 0x50
    1c58:	64a5      	str	r5, [r4, #72]	; 0x48
    1c5a:	201c      	movs	r0, #28
    1c5c:	2b01      	cmp	r3, #1
    1c5e:	d000      	beq.n	1c62 <ps_spi_poll+0x6a>
    1c60:	3807      	subs	r0, #7
    1c62:	4bab      	ldr	r3, [pc, #684]	; (1f10 <ps_spi_poll+0x318>)
    1c64:	222b      	movs	r2, #43	; 0x2b
    1c66:	2100      	movs	r1, #0
    1c68:	70b0      	strb	r0, [r6, #2]
    1c6a:	4798      	blx	r3
    1c6c:	2301      	movs	r3, #1
    1c6e:	3444      	adds	r4, #68	; 0x44
    1c70:	7023      	strb	r3, [r4, #0]
    1c72:	e022      	b.n	1cba <ps_spi_poll+0xc2>
    1c74:	78b0      	ldrb	r0, [r6, #2]
    1c76:	4ba7      	ldr	r3, [pc, #668]	; (1f14 <ps_spi_poll+0x31c>)
    1c78:	4798      	blx	r3
    1c7a:	6ca0      	ldr	r0, [r4, #72]	; 0x48
    1c7c:	4ba6      	ldr	r3, [pc, #664]	; (1f18 <ps_spi_poll+0x320>)
    1c7e:	4798      	blx	r3
    1c80:	2301      	movs	r3, #1
    1c82:	3444      	adds	r4, #68	; 0x44
    1c84:	70f3      	strb	r3, [r6, #3]
    1c86:	18db      	adds	r3, r3, r3
    1c88:	e7f2      	b.n	1c70 <ps_spi_poll+0x78>
    1c8a:	4ba4      	ldr	r3, [pc, #656]	; (1f1c <ps_spi_poll+0x324>)
    1c8c:	78b1      	ldrb	r1, [r6, #2]
    1c8e:	78f0      	ldrb	r0, [r6, #3]
    1c90:	4798      	blx	r3
    1c92:	3444      	adds	r4, #68	; 0x44
    1c94:	2303      	movs	r3, #3
    1c96:	e7eb      	b.n	1c70 <ps_spi_poll+0x78>
    1c98:	78b0      	ldrb	r0, [r6, #2]
    1c9a:	4b9e      	ldr	r3, [pc, #632]	; (1f14 <ps_spi_poll+0x31c>)
    1c9c:	4798      	blx	r3
    1c9e:	4ba0      	ldr	r3, [pc, #640]	; (1f20 <ps_spi_poll+0x328>)
    1ca0:	78f0      	ldrb	r0, [r6, #3]
    1ca2:	6ca1      	ldr	r1, [r4, #72]	; 0x48
    1ca4:	4798      	blx	r3
    1ca6:	78f3      	ldrb	r3, [r6, #3]
    1ca8:	2202      	movs	r2, #2
    1caa:	3301      	adds	r3, #1
    1cac:	b2db      	uxtb	r3, r3
    1cae:	70f3      	strb	r3, [r6, #3]
    1cb0:	2b03      	cmp	r3, #3
    1cb2:	d900      	bls.n	1cb6 <ps_spi_poll+0xbe>
    1cb4:	1892      	adds	r2, r2, r2
    1cb6:	3444      	adds	r4, #68	; 0x44
    1cb8:	7022      	strb	r2, [r4, #0]
    1cba:	bdf8      	pop	{r3, r4, r5, r6, r7, pc}
    1cbc:	4b94      	ldr	r3, [pc, #592]	; (1f10 <ps_spi_poll+0x318>)
    1cbe:	78b0      	ldrb	r0, [r6, #2]
    1cc0:	220a      	movs	r2, #10
    1cc2:	213d      	movs	r1, #61	; 0x3d
    1cc4:	4798      	blx	r3
    1cc6:	3444      	adds	r4, #68	; 0x44
    1cc8:	2305      	movs	r3, #5
    1cca:	e7d1      	b.n	1c70 <ps_spi_poll+0x78>
    1ccc:	4b91      	ldr	r3, [pc, #580]	; (1f14 <ps_spi_poll+0x31c>)
    1cce:	78b0      	ldrb	r0, [r6, #2]
    1cd0:	4798      	blx	r3
    1cd2:	6ca3      	ldr	r3, [r4, #72]	; 0x48
    1cd4:	78a9      	ldrb	r1, [r5, #2]
    1cd6:	001a      	movs	r2, r3
    1cd8:	322a      	adds	r2, #42	; 0x2a
    1cda:	7011      	strb	r1, [r2, #0]
    1cdc:	7929      	ldrb	r1, [r5, #4]
    1cde:	332d      	adds	r3, #45	; 0x2d
    1ce0:	7051      	strb	r1, [r2, #1]
    1ce2:	79a9      	ldrb	r1, [r5, #6]
    1ce4:	3444      	adds	r4, #68	; 0x44
    1ce6:	7091      	strb	r1, [r2, #2]
    1ce8:	7a2a      	ldrb	r2, [r5, #8]
    1cea:	701a      	strb	r2, [r3, #0]
    1cec:	2306      	movs	r3, #6
    1cee:	e7bf      	b.n	1c70 <ps_spi_poll+0x78>
    1cf0:	21e1      	movs	r1, #225	; 0xe1
    1cf2:	4b87      	ldr	r3, [pc, #540]	; (1f10 <ps_spi_poll+0x318>)
    1cf4:	78b0      	ldrb	r0, [r6, #2]
    1cf6:	2204      	movs	r2, #4
    1cf8:	0049      	lsls	r1, r1, #1
    1cfa:	4798      	blx	r3
    1cfc:	3444      	adds	r4, #68	; 0x44
    1cfe:	2307      	movs	r3, #7
    1d00:	e7b6      	b.n	1c70 <ps_spi_poll+0x78>
    1d02:	4b84      	ldr	r3, [pc, #528]	; (1f14 <ps_spi_poll+0x31c>)
    1d04:	78b0      	ldrb	r0, [r6, #2]
    1d06:	4798      	blx	r3
    1d08:	78eb      	ldrb	r3, [r5, #3]
    1d0a:	78aa      	ldrb	r2, [r5, #2]
    1d0c:	021b      	lsls	r3, r3, #8
    1d0e:	18d2      	adds	r2, r2, r3
    1d10:	6ca3      	ldr	r3, [r4, #72]	; 0x48
    1d12:	3364      	adds	r3, #100	; 0x64
    1d14:	801a      	strh	r2, [r3, #0]
    1d16:	0023      	movs	r3, r4
    1d18:	2200      	movs	r2, #0
    1d1a:	334c      	adds	r3, #76	; 0x4c
    1d1c:	801a      	strh	r2, [r3, #0]
    1d1e:	2301      	movs	r3, #1
    1d20:	425b      	negs	r3, r3
    1d22:	80b3      	strh	r3, [r6, #4]
    1d24:	3444      	adds	r4, #68	; 0x44
    1d26:	3309      	adds	r3, #9
    1d28:	e7a2      	b.n	1c70 <ps_spi_poll+0x78>
    1d2a:	0023      	movs	r3, r4
    1d2c:	334c      	adds	r3, #76	; 0x4c
    1d2e:	8819      	ldrh	r1, [r3, #0]
    1d30:	78b0      	ldrb	r0, [r6, #2]
    1d32:	4b77      	ldr	r3, [pc, #476]	; (1f10 <ps_spi_poll+0x318>)
    1d34:	2203      	movs	r2, #3
    1d36:	4798      	blx	r3
    1d38:	3444      	adds	r4, #68	; 0x44
    1d3a:	2309      	movs	r3, #9
    1d3c:	e798      	b.n	1c70 <ps_spi_poll+0x78>
    1d3e:	78b0      	ldrb	r0, [r6, #2]
    1d40:	4b74      	ldr	r3, [pc, #464]	; (1f14 <ps_spi_poll+0x31c>)
    1d42:	4798      	blx	r3
    1d44:	88b3      	ldrh	r3, [r6, #4]
    1d46:	78aa      	ldrb	r2, [r5, #2]
    1d48:	0a19      	lsrs	r1, r3, #8
    1d4a:	404a      	eors	r2, r1
    1d4c:	4975      	ldr	r1, [pc, #468]	; (1f24 <ps_spi_poll+0x32c>)
    1d4e:	0052      	lsls	r2, r2, #1
    1d50:	5a52      	ldrh	r2, [r2, r1]
    1d52:	0021      	movs	r1, r4
    1d54:	20c2      	movs	r0, #194	; 0xc2
    1d56:	0025      	movs	r5, r4
    1d58:	314c      	adds	r1, #76	; 0x4c
    1d5a:	021b      	lsls	r3, r3, #8
    1d5c:	4053      	eors	r3, r2
    1d5e:	880a      	ldrh	r2, [r1, #0]
    1d60:	b29b      	uxth	r3, r3
    1d62:	3201      	adds	r2, #1
    1d64:	b292      	uxth	r2, r2
    1d66:	30ff      	adds	r0, #255	; 0xff
    1d68:	80b3      	strh	r3, [r6, #4]
    1d6a:	800a      	strh	r2, [r1, #0]
    1d6c:	3544      	adds	r5, #68	; 0x44
    1d6e:	4282      	cmp	r2, r0
    1d70:	d802      	bhi.n	1d78 <ps_spi_poll+0x180>
    1d72:	2308      	movs	r3, #8
    1d74:	702b      	strb	r3, [r5, #0]
    1d76:	e7a0      	b.n	1cba <ps_spi_poll+0xc2>
    1d78:	6ca2      	ldr	r2, [r4, #72]	; 0x48
    1d7a:	3264      	adds	r2, #100	; 0x64
    1d7c:	8812      	ldrh	r2, [r2, #0]
    1d7e:	429a      	cmp	r2, r3
    1d80:	d001      	beq.n	1d86 <ps_spi_poll+0x18e>
    1d82:	230a      	movs	r3, #10
    1d84:	e7f6      	b.n	1d74 <ps_spi_poll+0x17c>
    1d86:	7873      	ldrb	r3, [r6, #1]
    1d88:	2b01      	cmp	r3, #1
    1d8a:	d805      	bhi.n	1d98 <ps_spi_poll+0x1a0>
    1d8c:	2200      	movs	r2, #0
    1d8e:	3301      	adds	r3, #1
    1d90:	800a      	strh	r2, [r1, #0]
    1d92:	7073      	strb	r3, [r6, #1]
    1d94:	702a      	strb	r2, [r5, #0]
    1d96:	e790      	b.n	1cba <ps_spi_poll+0xc2>
    1d98:	4c63      	ldr	r4, [pc, #396]	; (1f28 <ps_spi_poll+0x330>)
    1d9a:	4b64      	ldr	r3, [pc, #400]	; (1f2c <ps_spi_poll+0x334>)
    1d9c:	0020      	movs	r0, r4
    1d9e:	4798      	blx	r3
    1da0:	2101      	movs	r1, #1
    1da2:	4b63      	ldr	r3, [pc, #396]	; (1f30 <ps_spi_poll+0x338>)
    1da4:	0020      	movs	r0, r4
    1da6:	4798      	blx	r3
    1da8:	4b62      	ldr	r3, [pc, #392]	; (1f34 <ps_spi_poll+0x33c>)
    1daa:	0020      	movs	r0, r4
    1dac:	4798      	blx	r3
    1dae:	2301      	movs	r3, #1
    1db0:	7073      	strb	r3, [r6, #1]
    1db2:	330a      	adds	r3, #10
    1db4:	e7de      	b.n	1d74 <ps_spi_poll+0x17c>
    1db6:	002b      	movs	r3, r5
    1db8:	7870      	ldrb	r0, [r6, #1]
    1dba:	335c      	adds	r3, #92	; 0x5c
    1dbc:	2801      	cmp	r0, #1
    1dbe:	d001      	beq.n	1dc4 <ps_spi_poll+0x1cc>
    1dc0:	4b52      	ldr	r3, [pc, #328]	; (1f0c <ps_spi_poll+0x314>)
    1dc2:	3350      	adds	r3, #80	; 0x50
    1dc4:	3801      	subs	r0, #1
    1dc6:	64a3      	str	r3, [r4, #72]	; 0x48
    1dc8:	1e43      	subs	r3, r0, #1
    1dca:	4198      	sbcs	r0, r3
    1dcc:	2306      	movs	r3, #6
    1dce:	352c      	adds	r5, #44	; 0x2c
    1dd0:	302a      	adds	r0, #42	; 0x2a
    1dd2:	702b      	strb	r3, [r5, #0]
    1dd4:	2101      	movs	r1, #1
    1dd6:	4b58      	ldr	r3, [pc, #352]	; (1f38 <ps_spi_poll+0x340>)
    1dd8:	70b0      	strb	r0, [r6, #2]
    1dda:	4798      	blx	r3
    1ddc:	4b57      	ldr	r3, [pc, #348]	; (1f3c <ps_spi_poll+0x344>)
    1dde:	3444      	adds	r4, #68	; 0x44
    1de0:	681b      	ldr	r3, [r3, #0]
    1de2:	60e3      	str	r3, [r4, #12]
    1de4:	230c      	movs	r3, #12
    1de6:	e743      	b.n	1c70 <ps_spi_poll+0x78>
    1de8:	4b4a      	ldr	r3, [pc, #296]	; (1f14 <ps_spi_poll+0x31c>)
    1dea:	78b0      	ldrb	r0, [r6, #2]
    1dec:	4798      	blx	r3
    1dee:	4b53      	ldr	r3, [pc, #332]	; (1f3c <ps_spi_poll+0x344>)
    1df0:	6d22      	ldr	r2, [r4, #80]	; 0x50
    1df2:	681b      	ldr	r3, [r3, #0]
    1df4:	1a9b      	subs	r3, r3, r2
    1df6:	6563      	str	r3, [r4, #84]	; 0x54
    1df8:	d000      	beq.n	1dfc <ps_spi_poll+0x204>
    1dfa:	270d      	movs	r7, #13
    1dfc:	3444      	adds	r4, #68	; 0x44
    1dfe:	7027      	strb	r7, [r4, #0]
    1e00:	e75b      	b.n	1cba <ps_spi_poll+0xc2>
    1e02:	2343      	movs	r3, #67	; 0x43
    1e04:	352c      	adds	r5, #44	; 0x2c
    1e06:	702b      	strb	r3, [r5, #0]
    1e08:	6ca3      	ldr	r3, [r4, #72]	; 0x48
    1e0a:	78b0      	ldrb	r0, [r6, #2]
    1e0c:	001a      	movs	r2, r3
    1e0e:	322a      	adds	r2, #42	; 0x2a
    1e10:	7812      	ldrb	r2, [r2, #0]
    1e12:	2105      	movs	r1, #5
    1e14:	706a      	strb	r2, [r5, #1]
    1e16:	2286      	movs	r2, #134	; 0x86
    1e18:	70aa      	strb	r2, [r5, #2]
    1e1a:	001a      	movs	r2, r3
    1e1c:	322c      	adds	r2, #44	; 0x2c
    1e1e:	7812      	ldrb	r2, [r2, #0]
    1e20:	332d      	adds	r3, #45	; 0x2d
    1e22:	70ea      	strb	r2, [r5, #3]
    1e24:	781b      	ldrb	r3, [r3, #0]
    1e26:	3444      	adds	r4, #68	; 0x44
    1e28:	712b      	strb	r3, [r5, #4]
    1e2a:	4b43      	ldr	r3, [pc, #268]	; (1f38 <ps_spi_poll+0x340>)
    1e2c:	4798      	blx	r3
    1e2e:	230e      	movs	r3, #14
    1e30:	e71e      	b.n	1c70 <ps_spi_poll+0x78>
    1e32:	4b38      	ldr	r3, [pc, #224]	; (1f14 <ps_spi_poll+0x31c>)
    1e34:	78b0      	ldrb	r0, [r6, #2]
    1e36:	4798      	blx	r3
    1e38:	7873      	ldrb	r3, [r6, #1]
    1e3a:	2b01      	cmp	r3, #1
    1e3c:	d804      	bhi.n	1e48 <ps_spi_poll+0x250>
    1e3e:	3301      	adds	r3, #1
    1e40:	7073      	strb	r3, [r6, #1]
    1e42:	3444      	adds	r4, #68	; 0x44
    1e44:	230b      	movs	r3, #11
    1e46:	e713      	b.n	1c70 <ps_spi_poll+0x78>
    1e48:	2301      	movs	r3, #1
    1e4a:	352c      	adds	r5, #44	; 0x2c
    1e4c:	7073      	strb	r3, [r6, #1]
    1e4e:	3343      	adds	r3, #67	; 0x43
    1e50:	702b      	strb	r3, [r5, #0]
    1e52:	3b3c      	subs	r3, #60	; 0x3c
    1e54:	70ab      	strb	r3, [r5, #2]
    1e56:	3444      	adds	r4, #68	; 0x44
    1e58:	3307      	adds	r3, #7
    1e5a:	e709      	b.n	1c70 <ps_spi_poll+0x78>
    1e5c:	002b      	movs	r3, r5
    1e5e:	7870      	ldrb	r0, [r6, #1]
    1e60:	335c      	adds	r3, #92	; 0x5c
    1e62:	2801      	cmp	r0, #1
    1e64:	d001      	beq.n	1e6a <ps_spi_poll+0x272>
    1e66:	4b29      	ldr	r3, [pc, #164]	; (1f0c <ps_spi_poll+0x314>)
    1e68:	3350      	adds	r3, #80	; 0x50
    1e6a:	3801      	subs	r0, #1
    1e6c:	64a3      	str	r3, [r4, #72]	; 0x48
    1e6e:	1e43      	subs	r3, r0, #1
    1e70:	4198      	sbcs	r0, r3
    1e72:	2384      	movs	r3, #132	; 0x84
    1e74:	352c      	adds	r5, #44	; 0x2c
    1e76:	302a      	adds	r0, #42	; 0x2a
    1e78:	706b      	strb	r3, [r5, #1]
    1e7a:	2103      	movs	r1, #3
    1e7c:	4b2e      	ldr	r3, [pc, #184]	; (1f38 <ps_spi_poll+0x340>)
    1e7e:	70b0      	strb	r0, [r6, #2]
    1e80:	4798      	blx	r3
    1e82:	4b2e      	ldr	r3, [pc, #184]	; (1f3c <ps_spi_poll+0x344>)
    1e84:	3444      	adds	r4, #68	; 0x44
    1e86:	681b      	ldr	r3, [r3, #0]
    1e88:	60e3      	str	r3, [r4, #12]
    1e8a:	2310      	movs	r3, #16
    1e8c:	e6f0      	b.n	1c70 <ps_spi_poll+0x78>
    1e8e:	78b0      	ldrb	r0, [r6, #2]
    1e90:	4b20      	ldr	r3, [pc, #128]	; (1f14 <ps_spi_poll+0x31c>)
    1e92:	4798      	blx	r3
    1e94:	7828      	ldrb	r0, [r5, #0]
    1e96:	786b      	ldrb	r3, [r5, #1]
    1e98:	6ca6      	ldr	r6, [r4, #72]	; 0x48
    1e9a:	0200      	lsls	r0, r0, #8
    1e9c:	18c0      	adds	r0, r0, r3
    1e9e:	0033      	movs	r3, r6
    1ea0:	1080      	asrs	r0, r0, #2
    1ea2:	3366      	adds	r3, #102	; 0x66
    1ea4:	8018      	strh	r0, [r3, #0]
    1ea6:	4b26      	ldr	r3, [pc, #152]	; (1f40 <ps_spi_poll+0x348>)
    1ea8:	4798      	blx	r3
    1eaa:	21f4      	movs	r1, #244	; 0xf4
    1eac:	4b25      	ldr	r3, [pc, #148]	; (1f44 <ps_spi_poll+0x34c>)
    1eae:	0589      	lsls	r1, r1, #22
    1eb0:	4798      	blx	r3
    1eb2:	2311      	movs	r3, #17
    1eb4:	3444      	adds	r4, #68	; 0x44
    1eb6:	7023      	strb	r3, [r4, #0]
    1eb8:	2280      	movs	r2, #128	; 0x80
    1eba:	23c0      	movs	r3, #192	; 0xc0
    1ebc:	0352      	lsls	r2, r2, #13
    1ebe:	05db      	lsls	r3, r3, #23
    1ec0:	66b0      	str	r0, [r6, #104]	; 0x68
    1ec2:	619a      	str	r2, [r3, #24]
    1ec4:	619a      	str	r2, [r3, #24]
    1ec6:	619a      	str	r2, [r3, #24]
    1ec8:	619a      	str	r2, [r3, #24]
    1eca:	619a      	str	r2, [r3, #24]
    1ecc:	619a      	str	r2, [r3, #24]
    1ece:	615a      	str	r2, [r3, #20]
    1ed0:	e6f3      	b.n	1cba <ps_spi_poll+0xc2>
    1ed2:	4b1a      	ldr	r3, [pc, #104]	; (1f3c <ps_spi_poll+0x344>)
    1ed4:	6d22      	ldr	r2, [r4, #80]	; 0x50
    1ed6:	681b      	ldr	r3, [r3, #0]
    1ed8:	1a9b      	subs	r3, r3, r2
    1eda:	65a3      	str	r3, [r4, #88]	; 0x58
    1edc:	2b03      	cmp	r3, #3
    1ede:	d98d      	bls.n	1dfc <ps_spi_poll+0x204>
    1ee0:	2712      	movs	r7, #18
    1ee2:	e78b      	b.n	1dfc <ps_spi_poll+0x204>
    1ee4:	2386      	movs	r3, #134	; 0x86
    1ee6:	352c      	adds	r5, #44	; 0x2c
    1ee8:	706b      	strb	r3, [r5, #1]
    1eea:	78b0      	ldrb	r0, [r6, #2]
    1eec:	4b12      	ldr	r3, [pc, #72]	; (1f38 <ps_spi_poll+0x340>)
    1eee:	2103      	movs	r1, #3
    1ef0:	4798      	blx	r3
    1ef2:	4b12      	ldr	r3, [pc, #72]	; (1f3c <ps_spi_poll+0x344>)
    1ef4:	3444      	adds	r4, #68	; 0x44
    1ef6:	681b      	ldr	r3, [r3, #0]
    1ef8:	60e3      	str	r3, [r4, #12]
    1efa:	2313      	movs	r3, #19
    1efc:	e6b8      	b.n	1c70 <ps_spi_poll+0x78>
    1efe:	46c0      	nop			; (mov r8, r8)
    1f00:	200001ac 	.word	0x200001ac
    1f04:	20000000 	.word	0x20000000
    1f08:	200002ac 	.word	0x200002ac
    1f0c:	2000022c 	.word	0x2000022c
    1f10:	000019d5 	.word	0x000019d5
    1f14:	000019bd 	.word	0x000019bd
    1f18:	00001a19 	.word	0x00001a19
    1f1c:	00001ad9 	.word	0x00001ad9
    1f20:	00001a6d 	.word	0x00001a6d
    1f24:	00002f8e 	.word	0x00002f8e
    1f28:	2000034c 	.word	0x2000034c
    1f2c:	00000a75 	.word	0x00000a75
    1f30:	00000ab5 	.word	0x00000ab5
    1f34:	00000a4d 	.word	0x00000a4d
    1f38:	0000194d 	.word	0x0000194d
    1f3c:	20000334 	.word	0x20000334
    1f40:	00002d05 	.word	0x00002d05
    1f44:	0000278d 	.word	0x0000278d
    1f48:	78b0      	ldrb	r0, [r6, #2]
    1f4a:	4b1a      	ldr	r3, [pc, #104]	; (1fb4 <ps_spi_poll+0x3bc>)
    1f4c:	4798      	blx	r3
    1f4e:	786a      	ldrb	r2, [r5, #1]
    1f50:	782b      	ldrb	r3, [r5, #0]
    1f52:	0212      	lsls	r2, r2, #8
    1f54:	041b      	lsls	r3, r3, #16
    1f56:	189b      	adds	r3, r3, r2
    1f58:	78aa      	ldrb	r2, [r5, #2]
    1f5a:	6ca0      	ldr	r0, [r4, #72]	; 0x48
    1f5c:	189b      	adds	r3, r3, r2
    1f5e:	021b      	lsls	r3, r3, #8
    1f60:	121b      	asrs	r3, r3, #8
    1f62:	66c3      	str	r3, [r0, #108]	; 0x6c
    1f64:	4b14      	ldr	r3, [pc, #80]	; (1fb8 <ps_spi_poll+0x3c0>)
    1f66:	4798      	blx	r3
    1f68:	2314      	movs	r3, #20
    1f6a:	3444      	adds	r4, #68	; 0x44
    1f6c:	7023      	strb	r3, [r4, #0]
    1f6e:	2280      	movs	r2, #128	; 0x80
    1f70:	23c0      	movs	r3, #192	; 0xc0
    1f72:	210a      	movs	r1, #10
    1f74:	05db      	lsls	r3, r3, #23
    1f76:	0352      	lsls	r2, r2, #13
    1f78:	619a      	str	r2, [r3, #24]
    1f7a:	3901      	subs	r1, #1
    1f7c:	b2c9      	uxtb	r1, r1
    1f7e:	619a      	str	r2, [r3, #24]
    1f80:	2900      	cmp	r1, #0
    1f82:	d1fa      	bne.n	1f7a <ps_spi_poll+0x382>
    1f84:	e7a3      	b.n	1ece <ps_spi_poll+0x2d6>
    1f86:	4b0d      	ldr	r3, [pc, #52]	; (1fbc <ps_spi_poll+0x3c4>)
    1f88:	6d22      	ldr	r2, [r4, #80]	; 0x50
    1f8a:	681b      	ldr	r3, [r3, #0]
    1f8c:	3444      	adds	r4, #68	; 0x44
    1f8e:	1a9b      	subs	r3, r3, r2
    1f90:	6163      	str	r3, [r4, #20]
    1f92:	2b03      	cmp	r3, #3
    1f94:	d801      	bhi.n	1f9a <ps_spi_poll+0x3a2>
    1f96:	2314      	movs	r3, #20
    1f98:	e66a      	b.n	1c70 <ps_spi_poll+0x78>
    1f9a:	230f      	movs	r3, #15
    1f9c:	7023      	strb	r3, [r4, #0]
    1f9e:	7873      	ldrb	r3, [r6, #1]
    1fa0:	3b01      	subs	r3, #1
    1fa2:	4259      	negs	r1, r3
    1fa4:	4159      	adcs	r1, r3
    1fa6:	1c4b      	adds	r3, r1, #1
    1fa8:	7073      	strb	r3, [r6, #1]
    1faa:	e686      	b.n	1cba <ps_spi_poll+0xc2>
    1fac:	2200      	movs	r2, #0
    1fae:	701a      	strb	r2, [r3, #0]
    1fb0:	e683      	b.n	1cba <ps_spi_poll+0xc2>
    1fb2:	46c0      	nop			; (mov r8, r8)
    1fb4:	000019bd 	.word	0x000019bd
    1fb8:	00001b09 	.word	0x00001b09
    1fbc:	20000334 	.word	0x20000334

00001fc0 <sb_matlab_test_reset>:
    1fc0:	4a01      	ldr	r2, [pc, #4]	; (1fc8 <sb_matlab_test_reset+0x8>)
    1fc2:	4b02      	ldr	r3, [pc, #8]	; (1fcc <sb_matlab_test_reset+0xc>)
    1fc4:	801a      	strh	r2, [r3, #0]
    1fc6:	4770      	bx	lr
    1fc8:	000012ef 	.word	0x000012ef
    1fcc:	200000a4 	.word	0x200000a4

00001fd0 <sb_fail_sw_reset>:
    1fd0:	2200      	movs	r2, #0
    1fd2:	4b01      	ldr	r3, [pc, #4]	; (1fd8 <sb_fail_sw_reset+0x8>)
    1fd4:	815a      	strh	r2, [r3, #10]
    1fd6:	4770      	bx	lr
    1fd8:	200000a4 	.word	0x200000a4

00001fdc <sb_matlab_test_poll>:
    1fdc:	4b04      	ldr	r3, [pc, #16]	; (1ff0 <sb_matlab_test_poll+0x14>)
    1fde:	79da      	ldrb	r2, [r3, #7]
    1fe0:	2a00      	cmp	r2, #0
    1fe2:	d004      	beq.n	1fee <sb_matlab_test_poll+0x12>
    1fe4:	885a      	ldrh	r2, [r3, #2]
    1fe6:	43d2      	mvns	r2, r2
    1fe8:	801a      	strh	r2, [r3, #0]
    1fea:	2200      	movs	r2, #0
    1fec:	71da      	strb	r2, [r3, #7]
    1fee:	4770      	bx	lr
    1ff0:	200000a4 	.word	0x200000a4

00001ff4 <sb_fail_sw_poll>:
    1ff4:	4a05      	ldr	r2, [pc, #20]	; (200c <STACK_SIZE+0xc>)
    1ff6:	0013      	movs	r3, r2
    1ff8:	7c51      	ldrb	r1, [r2, #17]
    1ffa:	330a      	adds	r3, #10
    1ffc:	2900      	cmp	r1, #0
    1ffe:	d003      	beq.n	2008 <STACK_SIZE+0x8>
    2000:	8859      	ldrh	r1, [r3, #2]
    2002:	8151      	strh	r1, [r2, #10]
    2004:	2200      	movs	r2, #0
    2006:	71da      	strb	r2, [r3, #7]
    2008:	4770      	bx	lr
    200a:	46c0      	nop			; (mov r8, r8)
    200c:	200000a4 	.word	0x200000a4

00002010 <subbus_add_driver>:
    2010:	4a0c      	ldr	r2, [pc, #48]	; (2044 <subbus_add_driver+0x34>)
    2012:	b530      	push	{r4, r5, lr}
    2014:	6813      	ldr	r3, [r2, #0]
    2016:	2101      	movs	r1, #1
    2018:	2b06      	cmp	r3, #6
    201a:	dc11      	bgt.n	2040 <subbus_add_driver+0x30>
    201c:	8804      	ldrh	r4, [r0, #0]
    201e:	2b00      	cmp	r3, #0
    2020:	dd04      	ble.n	202c <subbus_add_driver+0x1c>
    2022:	009d      	lsls	r5, r3, #2
    2024:	58ad      	ldr	r5, [r5, r2]
    2026:	886d      	ldrh	r5, [r5, #2]
    2028:	42a5      	cmp	r5, r4
    202a:	d809      	bhi.n	2040 <subbus_add_driver+0x30>
    202c:	8845      	ldrh	r5, [r0, #2]
    202e:	2101      	movs	r1, #1
    2030:	42a5      	cmp	r5, r4
    2032:	d305      	bcc.n	2040 <subbus_add_driver+0x30>
    2034:	1859      	adds	r1, r3, r1
    2036:	6011      	str	r1, [r2, #0]
    2038:	2100      	movs	r1, #0
    203a:	009b      	lsls	r3, r3, #2
    203c:	18d3      	adds	r3, r2, r3
    203e:	6058      	str	r0, [r3, #4]
    2040:	0008      	movs	r0, r1
    2042:	bd30      	pop	{r4, r5, pc}
    2044:	20000308 	.word	0x20000308

00002048 <subbus_reset>:
    2048:	b510      	push	{r4, lr}
    204a:	2400      	movs	r4, #0
    204c:	4b06      	ldr	r3, [pc, #24]	; (2068 <subbus_reset+0x20>)
    204e:	681a      	ldr	r2, [r3, #0]
    2050:	4294      	cmp	r4, r2
    2052:	db00      	blt.n	2056 <subbus_reset+0xe>
    2054:	bd10      	pop	{r4, pc}
    2056:	3304      	adds	r3, #4
    2058:	00a2      	lsls	r2, r4, #2
    205a:	58d3      	ldr	r3, [r2, r3]
    205c:	689b      	ldr	r3, [r3, #8]
    205e:	2b00      	cmp	r3, #0
    2060:	d000      	beq.n	2064 <subbus_reset+0x1c>
    2062:	4798      	blx	r3
    2064:	3401      	adds	r4, #1
    2066:	e7f1      	b.n	204c <subbus_reset+0x4>
    2068:	20000308 	.word	0x20000308

0000206c <subbus_poll>:
    206c:	b510      	push	{r4, lr}
    206e:	2400      	movs	r4, #0
    2070:	4b06      	ldr	r3, [pc, #24]	; (208c <subbus_poll+0x20>)
    2072:	681a      	ldr	r2, [r3, #0]
    2074:	4294      	cmp	r4, r2
    2076:	db00      	blt.n	207a <subbus_poll+0xe>
    2078:	bd10      	pop	{r4, pc}
    207a:	3304      	adds	r3, #4
    207c:	00a2      	lsls	r2, r4, #2
    207e:	58d3      	ldr	r3, [r2, r3]
    2080:	68db      	ldr	r3, [r3, #12]
    2082:	2b00      	cmp	r3, #0
    2084:	d000      	beq.n	2088 <subbus_poll+0x1c>
    2086:	4798      	blx	r3
    2088:	3401      	adds	r4, #1
    208a:	e7f1      	b.n	2070 <subbus_poll+0x4>
    208c:	20000308 	.word	0x20000308

00002090 <subbus_cache_update>:
    2090:	b530      	push	{r4, r5, lr}
    2092:	8804      	ldrh	r4, [r0, #0]
    2094:	2300      	movs	r3, #0
    2096:	428c      	cmp	r4, r1
    2098:	d80d      	bhi.n	20b6 <subbus_cache_update+0x26>
    209a:	8845      	ldrh	r5, [r0, #2]
    209c:	428d      	cmp	r5, r1
    209e:	d30a      	bcc.n	20b6 <subbus_cache_update+0x26>
    20a0:	1b09      	subs	r1, r1, r4
    20a2:	330a      	adds	r3, #10
    20a4:	434b      	muls	r3, r1
    20a6:	6841      	ldr	r1, [r0, #4]
    20a8:	18c9      	adds	r1, r1, r3
    20aa:	790b      	ldrb	r3, [r1, #4]
    20ac:	2b00      	cmp	r3, #0
    20ae:	d002      	beq.n	20b6 <subbus_cache_update+0x26>
    20b0:	800a      	strh	r2, [r1, #0]
    20b2:	2200      	movs	r2, #0
    20b4:	714a      	strb	r2, [r1, #5]
    20b6:	0018      	movs	r0, r3
    20b8:	bd30      	pop	{r4, r5, pc}
	...

000020bc <board_desc_action>:
    20bc:	b5f8      	push	{r3, r4, r5, r6, r7, lr}
    20be:	4e13      	ldr	r6, [pc, #76]	; (210c <board_desc_action+0x50>)
    20c0:	4c13      	ldr	r4, [pc, #76]	; (2110 <board_desc_action+0x54>)
    20c2:	0033      	movs	r3, r6
    20c4:	331e      	adds	r3, #30
    20c6:	7bdb      	ldrb	r3, [r3, #15]
    20c8:	2b00      	cmp	r3, #0
    20ca:	d007      	beq.n	20dc <board_desc_action+0x20>
    20cc:	6a63      	ldr	r3, [r4, #36]	; 0x24
    20ce:	6aa2      	ldr	r2, [r4, #40]	; 0x28
    20d0:	3302      	adds	r3, #2
    20d2:	6263      	str	r3, [r4, #36]	; 0x24
    20d4:	4293      	cmp	r3, r2
    20d6:	db01      	blt.n	20dc <board_desc_action+0x20>
    20d8:	2300      	movs	r3, #0
    20da:	6263      	str	r3, [r4, #36]	; 0x24
    20dc:	6a65      	ldr	r5, [r4, #36]	; 0x24
    20de:	6aa3      	ldr	r3, [r4, #40]	; 0x28
    20e0:	3634      	adds	r6, #52	; 0x34
    20e2:	1b5b      	subs	r3, r3, r5
    20e4:	3301      	adds	r3, #1
    20e6:	0fda      	lsrs	r2, r3, #31
    20e8:	18d2      	adds	r2, r2, r3
    20ea:	1052      	asrs	r2, r2, #1
    20ec:	4f09      	ldr	r7, [pc, #36]	; (2114 <board_desc_action+0x58>)
    20ee:	0030      	movs	r0, r6
    20f0:	b292      	uxth	r2, r2
    20f2:	2108      	movs	r1, #8
    20f4:	47b8      	blx	r7
    20f6:	6a21      	ldr	r1, [r4, #32]
    20f8:	0030      	movs	r0, r6
    20fa:	194b      	adds	r3, r1, r5
    20fc:	785b      	ldrb	r3, [r3, #1]
    20fe:	5d4a      	ldrb	r2, [r1, r5]
    2100:	021b      	lsls	r3, r3, #8
    2102:	18d2      	adds	r2, r2, r3
    2104:	b292      	uxth	r2, r2
    2106:	2109      	movs	r1, #9
    2108:	47b8      	blx	r7
    210a:	bdf8      	pop	{r3, r4, r5, r6, r7, pc}
    210c:	200000a4 	.word	0x200000a4
    2110:	20000308 	.word	0x20000308
    2114:	00002091 	.word	0x00002091

00002118 <board_desc_init>:
    2118:	4b09      	ldr	r3, [pc, #36]	; (2140 <board_desc_init+0x28>)
    211a:	4a0a      	ldr	r2, [pc, #40]	; (2144 <board_desc_init+0x2c>)
    211c:	b570      	push	{r4, r5, r6, lr}
    211e:	621a      	str	r2, [r3, #32]
    2120:	2200      	movs	r2, #0
    2122:	4c09      	ldr	r4, [pc, #36]	; (2148 <board_desc_init+0x30>)
    2124:	625a      	str	r2, [r3, #36]	; 0x24
    2126:	3434      	adds	r4, #52	; 0x34
    2128:	322d      	adds	r2, #45	; 0x2d
    212a:	629a      	str	r2, [r3, #40]	; 0x28
    212c:	4d07      	ldr	r5, [pc, #28]	; (214c <board_desc_init+0x34>)
    212e:	3a16      	subs	r2, #22
    2130:	2108      	movs	r1, #8
    2132:	0020      	movs	r0, r4
    2134:	47a8      	blx	r5
    2136:	4a06      	ldr	r2, [pc, #24]	; (2150 <board_desc_init+0x38>)
    2138:	2109      	movs	r1, #9
    213a:	0020      	movs	r0, r4
    213c:	47a8      	blx	r5
    213e:	bd70      	pop	{r4, r5, r6, pc}
    2140:	20000308 	.word	0x20000308
    2144:	0000318e 	.word	0x0000318e
    2148:	200000a4 	.word	0x200000a4
    214c:	00002091 	.word	0x00002091
    2150:	00003956 	.word	0x00003956

00002154 <TIMER_0_task1_cb>:
    2154:	4a04      	ldr	r2, [pc, #16]	; (2168 <TIMER_0_task1_cb+0x14>)
    2156:	6813      	ldr	r3, [r2, #0]
    2158:	3301      	adds	r3, #1
    215a:	6013      	str	r3, [r2, #0]
    215c:	2280      	movs	r2, #128	; 0x80
    215e:	23c0      	movs	r3, #192	; 0xc0
    2160:	02d2      	lsls	r2, r2, #11
    2162:	05db      	lsls	r3, r3, #23
    2164:	61da      	str	r2, [r3, #28]
    2166:	4770      	bx	lr
    2168:	20000334 	.word	0x20000334

0000216c <TIMER_0_go>:
    216c:	b510      	push	{r4, lr}
    216e:	4c09      	ldr	r4, [pc, #36]	; (2194 <TIMER_0_go+0x28>)
    2170:	4909      	ldr	r1, [pc, #36]	; (2198 <TIMER_0_go+0x2c>)
    2172:	0020      	movs	r0, r4
    2174:	4b09      	ldr	r3, [pc, #36]	; (219c <TIMER_0_go+0x30>)
    2176:	4798      	blx	r3
    2178:	2301      	movs	r3, #1
    217a:	4909      	ldr	r1, [pc, #36]	; (21a0 <TIMER_0_go+0x34>)
    217c:	4a09      	ldr	r2, [pc, #36]	; (21a4 <TIMER_0_go+0x38>)
    217e:	60cb      	str	r3, [r1, #12]
    2180:	750b      	strb	r3, [r1, #20]
    2182:	610a      	str	r2, [r1, #16]
    2184:	0020      	movs	r0, r4
    2186:	3104      	adds	r1, #4
    2188:	4b07      	ldr	r3, [pc, #28]	; (21a8 <TIMER_0_go+0x3c>)
    218a:	4798      	blx	r3
    218c:	0020      	movs	r0, r4
    218e:	4b07      	ldr	r3, [pc, #28]	; (21ac <TIMER_0_go+0x40>)
    2190:	4798      	blx	r3
    2192:	bd10      	pop	{r4, pc}
    2194:	20000430 	.word	0x20000430
    2198:	00001f28 	.word	0x00001f28
    219c:	00000cd1 	.word	0x00000cd1
    21a0:	20000334 	.word	0x20000334
    21a4:	00002155 	.word	0x00002155
    21a8:	00000cfd 	.word	0x00000cfd
    21ac:	00000c95 	.word	0x00000c95

000021b0 <__gnu_thumb1_case_uhi>:
    21b0:	b403      	push	{r0, r1}
    21b2:	4671      	mov	r1, lr
    21b4:	0849      	lsrs	r1, r1, #1
    21b6:	0040      	lsls	r0, r0, #1
    21b8:	0049      	lsls	r1, r1, #1
    21ba:	5a09      	ldrh	r1, [r1, r0]
    21bc:	0049      	lsls	r1, r1, #1
    21be:	448e      	add	lr, r1
    21c0:	bc03      	pop	{r0, r1}
    21c2:	4770      	bx	lr

000021c4 <__ffssi2>:
    21c4:	b510      	push	{r4, lr}
    21c6:	2300      	movs	r3, #0
    21c8:	2800      	cmp	r0, #0
    21ca:	d002      	beq.n	21d2 <__ffssi2+0xe>
    21cc:	f000 fe08 	bl	2de0 <__ctzsi2>
    21d0:	1c43      	adds	r3, r0, #1
    21d2:	0018      	movs	r0, r3
    21d4:	bd10      	pop	{r4, pc}
    21d6:	46c0      	nop			; (mov r8, r8)

000021d8 <__aeabi_fadd>:
    21d8:	b5f0      	push	{r4, r5, r6, r7, lr}
    21da:	46c6      	mov	lr, r8
    21dc:	024e      	lsls	r6, r1, #9
    21de:	0247      	lsls	r7, r0, #9
    21e0:	0a76      	lsrs	r6, r6, #9
    21e2:	0a7b      	lsrs	r3, r7, #9
    21e4:	0044      	lsls	r4, r0, #1
    21e6:	0fc5      	lsrs	r5, r0, #31
    21e8:	00f7      	lsls	r7, r6, #3
    21ea:	0048      	lsls	r0, r1, #1
    21ec:	4698      	mov	r8, r3
    21ee:	b500      	push	{lr}
    21f0:	0e24      	lsrs	r4, r4, #24
    21f2:	002a      	movs	r2, r5
    21f4:	00db      	lsls	r3, r3, #3
    21f6:	0e00      	lsrs	r0, r0, #24
    21f8:	0fc9      	lsrs	r1, r1, #31
    21fa:	46bc      	mov	ip, r7
    21fc:	428d      	cmp	r5, r1
    21fe:	d067      	beq.n	22d0 <__aeabi_fadd+0xf8>
    2200:	1a22      	subs	r2, r4, r0
    2202:	2a00      	cmp	r2, #0
    2204:	dc00      	bgt.n	2208 <__aeabi_fadd+0x30>
    2206:	e0a5      	b.n	2354 <__aeabi_fadd+0x17c>
    2208:	2800      	cmp	r0, #0
    220a:	d13a      	bne.n	2282 <__aeabi_fadd+0xaa>
    220c:	2f00      	cmp	r7, #0
    220e:	d100      	bne.n	2212 <__aeabi_fadd+0x3a>
    2210:	e093      	b.n	233a <__aeabi_fadd+0x162>
    2212:	1e51      	subs	r1, r2, #1
    2214:	2900      	cmp	r1, #0
    2216:	d000      	beq.n	221a <__aeabi_fadd+0x42>
    2218:	e0bc      	b.n	2394 <__aeabi_fadd+0x1bc>
    221a:	2401      	movs	r4, #1
    221c:	1bdb      	subs	r3, r3, r7
    221e:	015a      	lsls	r2, r3, #5
    2220:	d546      	bpl.n	22b0 <__aeabi_fadd+0xd8>
    2222:	019b      	lsls	r3, r3, #6
    2224:	099e      	lsrs	r6, r3, #6
    2226:	0030      	movs	r0, r6
    2228:	f000 fdbc 	bl	2da4 <__clzsi2>
    222c:	3805      	subs	r0, #5
    222e:	4086      	lsls	r6, r0
    2230:	4284      	cmp	r4, r0
    2232:	dd00      	ble.n	2236 <__aeabi_fadd+0x5e>
    2234:	e09d      	b.n	2372 <__aeabi_fadd+0x19a>
    2236:	1b04      	subs	r4, r0, r4
    2238:	0032      	movs	r2, r6
    223a:	2020      	movs	r0, #32
    223c:	3401      	adds	r4, #1
    223e:	40e2      	lsrs	r2, r4
    2240:	1b04      	subs	r4, r0, r4
    2242:	40a6      	lsls	r6, r4
    2244:	0033      	movs	r3, r6
    2246:	1e5e      	subs	r6, r3, #1
    2248:	41b3      	sbcs	r3, r6
    224a:	2400      	movs	r4, #0
    224c:	4313      	orrs	r3, r2
    224e:	075a      	lsls	r2, r3, #29
    2250:	d004      	beq.n	225c <__aeabi_fadd+0x84>
    2252:	220f      	movs	r2, #15
    2254:	401a      	ands	r2, r3
    2256:	2a04      	cmp	r2, #4
    2258:	d000      	beq.n	225c <__aeabi_fadd+0x84>
    225a:	3304      	adds	r3, #4
    225c:	015a      	lsls	r2, r3, #5
    225e:	d529      	bpl.n	22b4 <__aeabi_fadd+0xdc>
    2260:	3401      	adds	r4, #1
    2262:	2cff      	cmp	r4, #255	; 0xff
    2264:	d100      	bne.n	2268 <__aeabi_fadd+0x90>
    2266:	e081      	b.n	236c <__aeabi_fadd+0x194>
    2268:	002a      	movs	r2, r5
    226a:	019b      	lsls	r3, r3, #6
    226c:	0a5b      	lsrs	r3, r3, #9
    226e:	b2e4      	uxtb	r4, r4
    2270:	025b      	lsls	r3, r3, #9
    2272:	05e4      	lsls	r4, r4, #23
    2274:	0a58      	lsrs	r0, r3, #9
    2276:	07d2      	lsls	r2, r2, #31
    2278:	4320      	orrs	r0, r4
    227a:	4310      	orrs	r0, r2
    227c:	bc04      	pop	{r2}
    227e:	4690      	mov	r8, r2
    2280:	bdf0      	pop	{r4, r5, r6, r7, pc}
    2282:	2cff      	cmp	r4, #255	; 0xff
    2284:	d0e3      	beq.n	224e <__aeabi_fadd+0x76>
    2286:	2180      	movs	r1, #128	; 0x80
    2288:	0038      	movs	r0, r7
    228a:	04c9      	lsls	r1, r1, #19
    228c:	4308      	orrs	r0, r1
    228e:	4684      	mov	ip, r0
    2290:	2a1b      	cmp	r2, #27
    2292:	dd00      	ble.n	2296 <__aeabi_fadd+0xbe>
    2294:	e082      	b.n	239c <__aeabi_fadd+0x1c4>
    2296:	2020      	movs	r0, #32
    2298:	4661      	mov	r1, ip
    229a:	40d1      	lsrs	r1, r2
    229c:	1a82      	subs	r2, r0, r2
    229e:	4660      	mov	r0, ip
    22a0:	4090      	lsls	r0, r2
    22a2:	0002      	movs	r2, r0
    22a4:	1e50      	subs	r0, r2, #1
    22a6:	4182      	sbcs	r2, r0
    22a8:	430a      	orrs	r2, r1
    22aa:	1a9b      	subs	r3, r3, r2
    22ac:	015a      	lsls	r2, r3, #5
    22ae:	d4b8      	bmi.n	2222 <__aeabi_fadd+0x4a>
    22b0:	075a      	lsls	r2, r3, #29
    22b2:	d1ce      	bne.n	2252 <__aeabi_fadd+0x7a>
    22b4:	08de      	lsrs	r6, r3, #3
    22b6:	002a      	movs	r2, r5
    22b8:	2cff      	cmp	r4, #255	; 0xff
    22ba:	d13a      	bne.n	2332 <__aeabi_fadd+0x15a>
    22bc:	2e00      	cmp	r6, #0
    22be:	d100      	bne.n	22c2 <__aeabi_fadd+0xea>
    22c0:	e0ae      	b.n	2420 <__aeabi_fadd+0x248>
    22c2:	2380      	movs	r3, #128	; 0x80
    22c4:	03db      	lsls	r3, r3, #15
    22c6:	4333      	orrs	r3, r6
    22c8:	025b      	lsls	r3, r3, #9
    22ca:	0a5b      	lsrs	r3, r3, #9
    22cc:	24ff      	movs	r4, #255	; 0xff
    22ce:	e7cf      	b.n	2270 <__aeabi_fadd+0x98>
    22d0:	1a21      	subs	r1, r4, r0
    22d2:	2900      	cmp	r1, #0
    22d4:	dd52      	ble.n	237c <__aeabi_fadd+0x1a4>
    22d6:	2800      	cmp	r0, #0
    22d8:	d031      	beq.n	233e <__aeabi_fadd+0x166>
    22da:	2cff      	cmp	r4, #255	; 0xff
    22dc:	d0b7      	beq.n	224e <__aeabi_fadd+0x76>
    22de:	2080      	movs	r0, #128	; 0x80
    22e0:	003e      	movs	r6, r7
    22e2:	04c0      	lsls	r0, r0, #19
    22e4:	4306      	orrs	r6, r0
    22e6:	46b4      	mov	ip, r6
    22e8:	291b      	cmp	r1, #27
    22ea:	dd00      	ble.n	22ee <__aeabi_fadd+0x116>
    22ec:	e0aa      	b.n	2444 <__aeabi_fadd+0x26c>
    22ee:	2620      	movs	r6, #32
    22f0:	4660      	mov	r0, ip
    22f2:	40c8      	lsrs	r0, r1
    22f4:	1a71      	subs	r1, r6, r1
    22f6:	4666      	mov	r6, ip
    22f8:	408e      	lsls	r6, r1
    22fa:	0031      	movs	r1, r6
    22fc:	1e4e      	subs	r6, r1, #1
    22fe:	41b1      	sbcs	r1, r6
    2300:	4301      	orrs	r1, r0
    2302:	185b      	adds	r3, r3, r1
    2304:	0159      	lsls	r1, r3, #5
    2306:	d5d3      	bpl.n	22b0 <__aeabi_fadd+0xd8>
    2308:	3401      	adds	r4, #1
    230a:	2cff      	cmp	r4, #255	; 0xff
    230c:	d100      	bne.n	2310 <__aeabi_fadd+0x138>
    230e:	e087      	b.n	2420 <__aeabi_fadd+0x248>
    2310:	2201      	movs	r2, #1
    2312:	4978      	ldr	r1, [pc, #480]	; (24f4 <__aeabi_fadd+0x31c>)
    2314:	401a      	ands	r2, r3
    2316:	085b      	lsrs	r3, r3, #1
    2318:	400b      	ands	r3, r1
    231a:	4313      	orrs	r3, r2
    231c:	e797      	b.n	224e <__aeabi_fadd+0x76>
    231e:	2c00      	cmp	r4, #0
    2320:	d000      	beq.n	2324 <__aeabi_fadd+0x14c>
    2322:	e0a7      	b.n	2474 <__aeabi_fadd+0x29c>
    2324:	2b00      	cmp	r3, #0
    2326:	d000      	beq.n	232a <__aeabi_fadd+0x152>
    2328:	e0b6      	b.n	2498 <__aeabi_fadd+0x2c0>
    232a:	1e3b      	subs	r3, r7, #0
    232c:	d162      	bne.n	23f4 <__aeabi_fadd+0x21c>
    232e:	2600      	movs	r6, #0
    2330:	2200      	movs	r2, #0
    2332:	0273      	lsls	r3, r6, #9
    2334:	0a5b      	lsrs	r3, r3, #9
    2336:	b2e4      	uxtb	r4, r4
    2338:	e79a      	b.n	2270 <__aeabi_fadd+0x98>
    233a:	0014      	movs	r4, r2
    233c:	e787      	b.n	224e <__aeabi_fadd+0x76>
    233e:	2f00      	cmp	r7, #0
    2340:	d04d      	beq.n	23de <__aeabi_fadd+0x206>
    2342:	1e48      	subs	r0, r1, #1
    2344:	2800      	cmp	r0, #0
    2346:	d157      	bne.n	23f8 <__aeabi_fadd+0x220>
    2348:	4463      	add	r3, ip
    234a:	2401      	movs	r4, #1
    234c:	015a      	lsls	r2, r3, #5
    234e:	d5af      	bpl.n	22b0 <__aeabi_fadd+0xd8>
    2350:	2402      	movs	r4, #2
    2352:	e7dd      	b.n	2310 <__aeabi_fadd+0x138>
    2354:	2a00      	cmp	r2, #0
    2356:	d124      	bne.n	23a2 <__aeabi_fadd+0x1ca>
    2358:	1c62      	adds	r2, r4, #1
    235a:	b2d2      	uxtb	r2, r2
    235c:	2a01      	cmp	r2, #1
    235e:	ddde      	ble.n	231e <__aeabi_fadd+0x146>
    2360:	1bde      	subs	r6, r3, r7
    2362:	0172      	lsls	r2, r6, #5
    2364:	d535      	bpl.n	23d2 <__aeabi_fadd+0x1fa>
    2366:	1afe      	subs	r6, r7, r3
    2368:	000d      	movs	r5, r1
    236a:	e75c      	b.n	2226 <__aeabi_fadd+0x4e>
    236c:	002a      	movs	r2, r5
    236e:	2300      	movs	r3, #0
    2370:	e77e      	b.n	2270 <__aeabi_fadd+0x98>
    2372:	0033      	movs	r3, r6
    2374:	4a60      	ldr	r2, [pc, #384]	; (24f8 <__aeabi_fadd+0x320>)
    2376:	1a24      	subs	r4, r4, r0
    2378:	4013      	ands	r3, r2
    237a:	e768      	b.n	224e <__aeabi_fadd+0x76>
    237c:	2900      	cmp	r1, #0
    237e:	d163      	bne.n	2448 <__aeabi_fadd+0x270>
    2380:	1c61      	adds	r1, r4, #1
    2382:	b2c8      	uxtb	r0, r1
    2384:	2801      	cmp	r0, #1
    2386:	dd4e      	ble.n	2426 <__aeabi_fadd+0x24e>
    2388:	29ff      	cmp	r1, #255	; 0xff
    238a:	d049      	beq.n	2420 <__aeabi_fadd+0x248>
    238c:	4463      	add	r3, ip
    238e:	085b      	lsrs	r3, r3, #1
    2390:	000c      	movs	r4, r1
    2392:	e75c      	b.n	224e <__aeabi_fadd+0x76>
    2394:	2aff      	cmp	r2, #255	; 0xff
    2396:	d041      	beq.n	241c <__aeabi_fadd+0x244>
    2398:	000a      	movs	r2, r1
    239a:	e779      	b.n	2290 <__aeabi_fadd+0xb8>
    239c:	2201      	movs	r2, #1
    239e:	1a9b      	subs	r3, r3, r2
    23a0:	e784      	b.n	22ac <__aeabi_fadd+0xd4>
    23a2:	2c00      	cmp	r4, #0
    23a4:	d01d      	beq.n	23e2 <__aeabi_fadd+0x20a>
    23a6:	28ff      	cmp	r0, #255	; 0xff
    23a8:	d022      	beq.n	23f0 <__aeabi_fadd+0x218>
    23aa:	2480      	movs	r4, #128	; 0x80
    23ac:	04e4      	lsls	r4, r4, #19
    23ae:	4252      	negs	r2, r2
    23b0:	4323      	orrs	r3, r4
    23b2:	2a1b      	cmp	r2, #27
    23b4:	dd00      	ble.n	23b8 <__aeabi_fadd+0x1e0>
    23b6:	e08a      	b.n	24ce <__aeabi_fadd+0x2f6>
    23b8:	001c      	movs	r4, r3
    23ba:	2520      	movs	r5, #32
    23bc:	40d4      	lsrs	r4, r2
    23be:	1aaa      	subs	r2, r5, r2
    23c0:	4093      	lsls	r3, r2
    23c2:	1e5a      	subs	r2, r3, #1
    23c4:	4193      	sbcs	r3, r2
    23c6:	4323      	orrs	r3, r4
    23c8:	4662      	mov	r2, ip
    23ca:	0004      	movs	r4, r0
    23cc:	1ad3      	subs	r3, r2, r3
    23ce:	000d      	movs	r5, r1
    23d0:	e725      	b.n	221e <__aeabi_fadd+0x46>
    23d2:	2e00      	cmp	r6, #0
    23d4:	d000      	beq.n	23d8 <__aeabi_fadd+0x200>
    23d6:	e726      	b.n	2226 <__aeabi_fadd+0x4e>
    23d8:	2200      	movs	r2, #0
    23da:	2400      	movs	r4, #0
    23dc:	e7a9      	b.n	2332 <__aeabi_fadd+0x15a>
    23de:	000c      	movs	r4, r1
    23e0:	e735      	b.n	224e <__aeabi_fadd+0x76>
    23e2:	2b00      	cmp	r3, #0
    23e4:	d04d      	beq.n	2482 <__aeabi_fadd+0x2aa>
    23e6:	43d2      	mvns	r2, r2
    23e8:	2a00      	cmp	r2, #0
    23ea:	d0ed      	beq.n	23c8 <__aeabi_fadd+0x1f0>
    23ec:	28ff      	cmp	r0, #255	; 0xff
    23ee:	d1e0      	bne.n	23b2 <__aeabi_fadd+0x1da>
    23f0:	4663      	mov	r3, ip
    23f2:	24ff      	movs	r4, #255	; 0xff
    23f4:	000d      	movs	r5, r1
    23f6:	e72a      	b.n	224e <__aeabi_fadd+0x76>
    23f8:	29ff      	cmp	r1, #255	; 0xff
    23fa:	d00f      	beq.n	241c <__aeabi_fadd+0x244>
    23fc:	0001      	movs	r1, r0
    23fe:	e773      	b.n	22e8 <__aeabi_fadd+0x110>
    2400:	2b00      	cmp	r3, #0
    2402:	d061      	beq.n	24c8 <__aeabi_fadd+0x2f0>
    2404:	24ff      	movs	r4, #255	; 0xff
    2406:	2f00      	cmp	r7, #0
    2408:	d100      	bne.n	240c <__aeabi_fadd+0x234>
    240a:	e720      	b.n	224e <__aeabi_fadd+0x76>
    240c:	2280      	movs	r2, #128	; 0x80
    240e:	4641      	mov	r1, r8
    2410:	03d2      	lsls	r2, r2, #15
    2412:	4211      	tst	r1, r2
    2414:	d002      	beq.n	241c <__aeabi_fadd+0x244>
    2416:	4216      	tst	r6, r2
    2418:	d100      	bne.n	241c <__aeabi_fadd+0x244>
    241a:	003b      	movs	r3, r7
    241c:	24ff      	movs	r4, #255	; 0xff
    241e:	e716      	b.n	224e <__aeabi_fadd+0x76>
    2420:	24ff      	movs	r4, #255	; 0xff
    2422:	2300      	movs	r3, #0
    2424:	e724      	b.n	2270 <__aeabi_fadd+0x98>
    2426:	2c00      	cmp	r4, #0
    2428:	d1ea      	bne.n	2400 <__aeabi_fadd+0x228>
    242a:	2b00      	cmp	r3, #0
    242c:	d058      	beq.n	24e0 <__aeabi_fadd+0x308>
    242e:	2f00      	cmp	r7, #0
    2430:	d100      	bne.n	2434 <__aeabi_fadd+0x25c>
    2432:	e70c      	b.n	224e <__aeabi_fadd+0x76>
    2434:	4463      	add	r3, ip
    2436:	015a      	lsls	r2, r3, #5
    2438:	d400      	bmi.n	243c <__aeabi_fadd+0x264>
    243a:	e739      	b.n	22b0 <__aeabi_fadd+0xd8>
    243c:	4a2e      	ldr	r2, [pc, #184]	; (24f8 <__aeabi_fadd+0x320>)
    243e:	000c      	movs	r4, r1
    2440:	4013      	ands	r3, r2
    2442:	e704      	b.n	224e <__aeabi_fadd+0x76>
    2444:	2101      	movs	r1, #1
    2446:	e75c      	b.n	2302 <__aeabi_fadd+0x12a>
    2448:	2c00      	cmp	r4, #0
    244a:	d11e      	bne.n	248a <__aeabi_fadd+0x2b2>
    244c:	2b00      	cmp	r3, #0
    244e:	d040      	beq.n	24d2 <__aeabi_fadd+0x2fa>
    2450:	43c9      	mvns	r1, r1
    2452:	2900      	cmp	r1, #0
    2454:	d00b      	beq.n	246e <__aeabi_fadd+0x296>
    2456:	28ff      	cmp	r0, #255	; 0xff
    2458:	d036      	beq.n	24c8 <__aeabi_fadd+0x2f0>
    245a:	291b      	cmp	r1, #27
    245c:	dc47      	bgt.n	24ee <__aeabi_fadd+0x316>
    245e:	001c      	movs	r4, r3
    2460:	2620      	movs	r6, #32
    2462:	40cc      	lsrs	r4, r1
    2464:	1a71      	subs	r1, r6, r1
    2466:	408b      	lsls	r3, r1
    2468:	1e59      	subs	r1, r3, #1
    246a:	418b      	sbcs	r3, r1
    246c:	4323      	orrs	r3, r4
    246e:	4463      	add	r3, ip
    2470:	0004      	movs	r4, r0
    2472:	e747      	b.n	2304 <__aeabi_fadd+0x12c>
    2474:	2b00      	cmp	r3, #0
    2476:	d118      	bne.n	24aa <__aeabi_fadd+0x2d2>
    2478:	1e3b      	subs	r3, r7, #0
    247a:	d02d      	beq.n	24d8 <__aeabi_fadd+0x300>
    247c:	000d      	movs	r5, r1
    247e:	24ff      	movs	r4, #255	; 0xff
    2480:	e6e5      	b.n	224e <__aeabi_fadd+0x76>
    2482:	003b      	movs	r3, r7
    2484:	0004      	movs	r4, r0
    2486:	000d      	movs	r5, r1
    2488:	e6e1      	b.n	224e <__aeabi_fadd+0x76>
    248a:	28ff      	cmp	r0, #255	; 0xff
    248c:	d01c      	beq.n	24c8 <__aeabi_fadd+0x2f0>
    248e:	2480      	movs	r4, #128	; 0x80
    2490:	04e4      	lsls	r4, r4, #19
    2492:	4249      	negs	r1, r1
    2494:	4323      	orrs	r3, r4
    2496:	e7e0      	b.n	245a <__aeabi_fadd+0x282>
    2498:	2f00      	cmp	r7, #0
    249a:	d100      	bne.n	249e <__aeabi_fadd+0x2c6>
    249c:	e6d7      	b.n	224e <__aeabi_fadd+0x76>
    249e:	1bde      	subs	r6, r3, r7
    24a0:	0172      	lsls	r2, r6, #5
    24a2:	d51f      	bpl.n	24e4 <__aeabi_fadd+0x30c>
    24a4:	1afb      	subs	r3, r7, r3
    24a6:	000d      	movs	r5, r1
    24a8:	e6d1      	b.n	224e <__aeabi_fadd+0x76>
    24aa:	24ff      	movs	r4, #255	; 0xff
    24ac:	2f00      	cmp	r7, #0
    24ae:	d100      	bne.n	24b2 <__aeabi_fadd+0x2da>
    24b0:	e6cd      	b.n	224e <__aeabi_fadd+0x76>
    24b2:	2280      	movs	r2, #128	; 0x80
    24b4:	4640      	mov	r0, r8
    24b6:	03d2      	lsls	r2, r2, #15
    24b8:	4210      	tst	r0, r2
    24ba:	d0af      	beq.n	241c <__aeabi_fadd+0x244>
    24bc:	4216      	tst	r6, r2
    24be:	d1ad      	bne.n	241c <__aeabi_fadd+0x244>
    24c0:	003b      	movs	r3, r7
    24c2:	000d      	movs	r5, r1
    24c4:	24ff      	movs	r4, #255	; 0xff
    24c6:	e6c2      	b.n	224e <__aeabi_fadd+0x76>
    24c8:	4663      	mov	r3, ip
    24ca:	24ff      	movs	r4, #255	; 0xff
    24cc:	e6bf      	b.n	224e <__aeabi_fadd+0x76>
    24ce:	2301      	movs	r3, #1
    24d0:	e77a      	b.n	23c8 <__aeabi_fadd+0x1f0>
    24d2:	003b      	movs	r3, r7
    24d4:	0004      	movs	r4, r0
    24d6:	e6ba      	b.n	224e <__aeabi_fadd+0x76>
    24d8:	2680      	movs	r6, #128	; 0x80
    24da:	2200      	movs	r2, #0
    24dc:	03f6      	lsls	r6, r6, #15
    24de:	e6f0      	b.n	22c2 <__aeabi_fadd+0xea>
    24e0:	003b      	movs	r3, r7
    24e2:	e6b4      	b.n	224e <__aeabi_fadd+0x76>
    24e4:	1e33      	subs	r3, r6, #0
    24e6:	d000      	beq.n	24ea <__aeabi_fadd+0x312>
    24e8:	e6e2      	b.n	22b0 <__aeabi_fadd+0xd8>
    24ea:	2200      	movs	r2, #0
    24ec:	e721      	b.n	2332 <__aeabi_fadd+0x15a>
    24ee:	2301      	movs	r3, #1
    24f0:	e7bd      	b.n	246e <__aeabi_fadd+0x296>
    24f2:	46c0      	nop			; (mov r8, r8)
    24f4:	7dffffff 	.word	0x7dffffff
    24f8:	fbffffff 	.word	0xfbffffff

000024fc <__aeabi_fdiv>:
    24fc:	b5f0      	push	{r4, r5, r6, r7, lr}
    24fe:	4657      	mov	r7, sl
    2500:	464e      	mov	r6, r9
    2502:	46de      	mov	lr, fp
    2504:	4645      	mov	r5, r8
    2506:	b5e0      	push	{r5, r6, r7, lr}
    2508:	0244      	lsls	r4, r0, #9
    250a:	0043      	lsls	r3, r0, #1
    250c:	0fc6      	lsrs	r6, r0, #31
    250e:	b083      	sub	sp, #12
    2510:	1c0f      	adds	r7, r1, #0
    2512:	0a64      	lsrs	r4, r4, #9
    2514:	0e1b      	lsrs	r3, r3, #24
    2516:	46b2      	mov	sl, r6
    2518:	d053      	beq.n	25c2 <__aeabi_fdiv+0xc6>
    251a:	2bff      	cmp	r3, #255	; 0xff
    251c:	d027      	beq.n	256e <__aeabi_fdiv+0x72>
    251e:	2280      	movs	r2, #128	; 0x80
    2520:	00e4      	lsls	r4, r4, #3
    2522:	04d2      	lsls	r2, r2, #19
    2524:	4314      	orrs	r4, r2
    2526:	227f      	movs	r2, #127	; 0x7f
    2528:	4252      	negs	r2, r2
    252a:	4690      	mov	r8, r2
    252c:	4498      	add	r8, r3
    252e:	2300      	movs	r3, #0
    2530:	4699      	mov	r9, r3
    2532:	469b      	mov	fp, r3
    2534:	027d      	lsls	r5, r7, #9
    2536:	0078      	lsls	r0, r7, #1
    2538:	0ffb      	lsrs	r3, r7, #31
    253a:	0a6d      	lsrs	r5, r5, #9
    253c:	0e00      	lsrs	r0, r0, #24
    253e:	9300      	str	r3, [sp, #0]
    2540:	d024      	beq.n	258c <__aeabi_fdiv+0x90>
    2542:	28ff      	cmp	r0, #255	; 0xff
    2544:	d046      	beq.n	25d4 <__aeabi_fdiv+0xd8>
    2546:	2380      	movs	r3, #128	; 0x80
    2548:	2100      	movs	r1, #0
    254a:	00ed      	lsls	r5, r5, #3
    254c:	04db      	lsls	r3, r3, #19
    254e:	431d      	orrs	r5, r3
    2550:	387f      	subs	r0, #127	; 0x7f
    2552:	4647      	mov	r7, r8
    2554:	1a38      	subs	r0, r7, r0
    2556:	464f      	mov	r7, r9
    2558:	430f      	orrs	r7, r1
    255a:	00bf      	lsls	r7, r7, #2
    255c:	46b9      	mov	r9, r7
    255e:	0033      	movs	r3, r6
    2560:	9a00      	ldr	r2, [sp, #0]
    2562:	4f87      	ldr	r7, [pc, #540]	; (2780 <__aeabi_fdiv+0x284>)
    2564:	4053      	eors	r3, r2
    2566:	464a      	mov	r2, r9
    2568:	58ba      	ldr	r2, [r7, r2]
    256a:	9301      	str	r3, [sp, #4]
    256c:	4697      	mov	pc, r2
    256e:	2c00      	cmp	r4, #0
    2570:	d14e      	bne.n	2610 <__aeabi_fdiv+0x114>
    2572:	2308      	movs	r3, #8
    2574:	4699      	mov	r9, r3
    2576:	33f7      	adds	r3, #247	; 0xf7
    2578:	4698      	mov	r8, r3
    257a:	3bfd      	subs	r3, #253	; 0xfd
    257c:	469b      	mov	fp, r3
    257e:	027d      	lsls	r5, r7, #9
    2580:	0078      	lsls	r0, r7, #1
    2582:	0ffb      	lsrs	r3, r7, #31
    2584:	0a6d      	lsrs	r5, r5, #9
    2586:	0e00      	lsrs	r0, r0, #24
    2588:	9300      	str	r3, [sp, #0]
    258a:	d1da      	bne.n	2542 <__aeabi_fdiv+0x46>
    258c:	2d00      	cmp	r5, #0
    258e:	d126      	bne.n	25de <__aeabi_fdiv+0xe2>
    2590:	2000      	movs	r0, #0
    2592:	2101      	movs	r1, #1
    2594:	0033      	movs	r3, r6
    2596:	9a00      	ldr	r2, [sp, #0]
    2598:	4f7a      	ldr	r7, [pc, #488]	; (2784 <__aeabi_fdiv+0x288>)
    259a:	4053      	eors	r3, r2
    259c:	4642      	mov	r2, r8
    259e:	1a10      	subs	r0, r2, r0
    25a0:	464a      	mov	r2, r9
    25a2:	430a      	orrs	r2, r1
    25a4:	0092      	lsls	r2, r2, #2
    25a6:	58ba      	ldr	r2, [r7, r2]
    25a8:	001d      	movs	r5, r3
    25aa:	4697      	mov	pc, r2
    25ac:	9b00      	ldr	r3, [sp, #0]
    25ae:	002c      	movs	r4, r5
    25b0:	469a      	mov	sl, r3
    25b2:	468b      	mov	fp, r1
    25b4:	465b      	mov	r3, fp
    25b6:	2b02      	cmp	r3, #2
    25b8:	d131      	bne.n	261e <__aeabi_fdiv+0x122>
    25ba:	4653      	mov	r3, sl
    25bc:	21ff      	movs	r1, #255	; 0xff
    25be:	2400      	movs	r4, #0
    25c0:	e038      	b.n	2634 <__aeabi_fdiv+0x138>
    25c2:	2c00      	cmp	r4, #0
    25c4:	d117      	bne.n	25f6 <__aeabi_fdiv+0xfa>
    25c6:	2304      	movs	r3, #4
    25c8:	4699      	mov	r9, r3
    25ca:	2300      	movs	r3, #0
    25cc:	4698      	mov	r8, r3
    25ce:	3301      	adds	r3, #1
    25d0:	469b      	mov	fp, r3
    25d2:	e7af      	b.n	2534 <__aeabi_fdiv+0x38>
    25d4:	20ff      	movs	r0, #255	; 0xff
    25d6:	2d00      	cmp	r5, #0
    25d8:	d10b      	bne.n	25f2 <__aeabi_fdiv+0xf6>
    25da:	2102      	movs	r1, #2
    25dc:	e7da      	b.n	2594 <__aeabi_fdiv+0x98>
    25de:	0028      	movs	r0, r5
    25e0:	f000 fbe0 	bl	2da4 <__clzsi2>
    25e4:	1f43      	subs	r3, r0, #5
    25e6:	409d      	lsls	r5, r3
    25e8:	2376      	movs	r3, #118	; 0x76
    25ea:	425b      	negs	r3, r3
    25ec:	1a18      	subs	r0, r3, r0
    25ee:	2100      	movs	r1, #0
    25f0:	e7af      	b.n	2552 <__aeabi_fdiv+0x56>
    25f2:	2103      	movs	r1, #3
    25f4:	e7ad      	b.n	2552 <__aeabi_fdiv+0x56>
    25f6:	0020      	movs	r0, r4
    25f8:	f000 fbd4 	bl	2da4 <__clzsi2>
    25fc:	1f43      	subs	r3, r0, #5
    25fe:	409c      	lsls	r4, r3
    2600:	2376      	movs	r3, #118	; 0x76
    2602:	425b      	negs	r3, r3
    2604:	1a1b      	subs	r3, r3, r0
    2606:	4698      	mov	r8, r3
    2608:	2300      	movs	r3, #0
    260a:	4699      	mov	r9, r3
    260c:	469b      	mov	fp, r3
    260e:	e791      	b.n	2534 <__aeabi_fdiv+0x38>
    2610:	230c      	movs	r3, #12
    2612:	4699      	mov	r9, r3
    2614:	33f3      	adds	r3, #243	; 0xf3
    2616:	4698      	mov	r8, r3
    2618:	3bfc      	subs	r3, #252	; 0xfc
    261a:	469b      	mov	fp, r3
    261c:	e78a      	b.n	2534 <__aeabi_fdiv+0x38>
    261e:	2b03      	cmp	r3, #3
    2620:	d100      	bne.n	2624 <__aeabi_fdiv+0x128>
    2622:	e0a5      	b.n	2770 <__aeabi_fdiv+0x274>
    2624:	4655      	mov	r5, sl
    2626:	2b01      	cmp	r3, #1
    2628:	d000      	beq.n	262c <__aeabi_fdiv+0x130>
    262a:	e081      	b.n	2730 <__aeabi_fdiv+0x234>
    262c:	2301      	movs	r3, #1
    262e:	2100      	movs	r1, #0
    2630:	2400      	movs	r4, #0
    2632:	402b      	ands	r3, r5
    2634:	0264      	lsls	r4, r4, #9
    2636:	05c9      	lsls	r1, r1, #23
    2638:	0a60      	lsrs	r0, r4, #9
    263a:	07db      	lsls	r3, r3, #31
    263c:	4308      	orrs	r0, r1
    263e:	4318      	orrs	r0, r3
    2640:	b003      	add	sp, #12
    2642:	bc3c      	pop	{r2, r3, r4, r5}
    2644:	4690      	mov	r8, r2
    2646:	4699      	mov	r9, r3
    2648:	46a2      	mov	sl, r4
    264a:	46ab      	mov	fp, r5
    264c:	bdf0      	pop	{r4, r5, r6, r7, pc}
    264e:	2480      	movs	r4, #128	; 0x80
    2650:	2300      	movs	r3, #0
    2652:	03e4      	lsls	r4, r4, #15
    2654:	21ff      	movs	r1, #255	; 0xff
    2656:	e7ed      	b.n	2634 <__aeabi_fdiv+0x138>
    2658:	21ff      	movs	r1, #255	; 0xff
    265a:	2400      	movs	r4, #0
    265c:	e7ea      	b.n	2634 <__aeabi_fdiv+0x138>
    265e:	2301      	movs	r3, #1
    2660:	1a59      	subs	r1, r3, r1
    2662:	291b      	cmp	r1, #27
    2664:	dd66      	ble.n	2734 <__aeabi_fdiv+0x238>
    2666:	9a01      	ldr	r2, [sp, #4]
    2668:	4013      	ands	r3, r2
    266a:	2100      	movs	r1, #0
    266c:	2400      	movs	r4, #0
    266e:	e7e1      	b.n	2634 <__aeabi_fdiv+0x138>
    2670:	2380      	movs	r3, #128	; 0x80
    2672:	03db      	lsls	r3, r3, #15
    2674:	421c      	tst	r4, r3
    2676:	d038      	beq.n	26ea <__aeabi_fdiv+0x1ee>
    2678:	421d      	tst	r5, r3
    267a:	d051      	beq.n	2720 <__aeabi_fdiv+0x224>
    267c:	431c      	orrs	r4, r3
    267e:	0264      	lsls	r4, r4, #9
    2680:	0a64      	lsrs	r4, r4, #9
    2682:	0033      	movs	r3, r6
    2684:	21ff      	movs	r1, #255	; 0xff
    2686:	e7d5      	b.n	2634 <__aeabi_fdiv+0x138>
    2688:	0163      	lsls	r3, r4, #5
    268a:	016c      	lsls	r4, r5, #5
    268c:	42a3      	cmp	r3, r4
    268e:	d23b      	bcs.n	2708 <__aeabi_fdiv+0x20c>
    2690:	261b      	movs	r6, #27
    2692:	2100      	movs	r1, #0
    2694:	3801      	subs	r0, #1
    2696:	2501      	movs	r5, #1
    2698:	001f      	movs	r7, r3
    269a:	0049      	lsls	r1, r1, #1
    269c:	005b      	lsls	r3, r3, #1
    269e:	2f00      	cmp	r7, #0
    26a0:	db01      	blt.n	26a6 <__aeabi_fdiv+0x1aa>
    26a2:	429c      	cmp	r4, r3
    26a4:	d801      	bhi.n	26aa <__aeabi_fdiv+0x1ae>
    26a6:	1b1b      	subs	r3, r3, r4
    26a8:	4329      	orrs	r1, r5
    26aa:	3e01      	subs	r6, #1
    26ac:	2e00      	cmp	r6, #0
    26ae:	d1f3      	bne.n	2698 <__aeabi_fdiv+0x19c>
    26b0:	001c      	movs	r4, r3
    26b2:	1e63      	subs	r3, r4, #1
    26b4:	419c      	sbcs	r4, r3
    26b6:	430c      	orrs	r4, r1
    26b8:	0001      	movs	r1, r0
    26ba:	317f      	adds	r1, #127	; 0x7f
    26bc:	2900      	cmp	r1, #0
    26be:	ddce      	ble.n	265e <__aeabi_fdiv+0x162>
    26c0:	0763      	lsls	r3, r4, #29
    26c2:	d004      	beq.n	26ce <__aeabi_fdiv+0x1d2>
    26c4:	230f      	movs	r3, #15
    26c6:	4023      	ands	r3, r4
    26c8:	2b04      	cmp	r3, #4
    26ca:	d000      	beq.n	26ce <__aeabi_fdiv+0x1d2>
    26cc:	3404      	adds	r4, #4
    26ce:	0123      	lsls	r3, r4, #4
    26d0:	d503      	bpl.n	26da <__aeabi_fdiv+0x1de>
    26d2:	0001      	movs	r1, r0
    26d4:	4b2c      	ldr	r3, [pc, #176]	; (2788 <__aeabi_fdiv+0x28c>)
    26d6:	3180      	adds	r1, #128	; 0x80
    26d8:	401c      	ands	r4, r3
    26da:	29fe      	cmp	r1, #254	; 0xfe
    26dc:	dd0d      	ble.n	26fa <__aeabi_fdiv+0x1fe>
    26de:	2301      	movs	r3, #1
    26e0:	9a01      	ldr	r2, [sp, #4]
    26e2:	21ff      	movs	r1, #255	; 0xff
    26e4:	4013      	ands	r3, r2
    26e6:	2400      	movs	r4, #0
    26e8:	e7a4      	b.n	2634 <__aeabi_fdiv+0x138>
    26ea:	2380      	movs	r3, #128	; 0x80
    26ec:	03db      	lsls	r3, r3, #15
    26ee:	431c      	orrs	r4, r3
    26f0:	0264      	lsls	r4, r4, #9
    26f2:	0a64      	lsrs	r4, r4, #9
    26f4:	0033      	movs	r3, r6
    26f6:	21ff      	movs	r1, #255	; 0xff
    26f8:	e79c      	b.n	2634 <__aeabi_fdiv+0x138>
    26fa:	2301      	movs	r3, #1
    26fc:	9a01      	ldr	r2, [sp, #4]
    26fe:	01a4      	lsls	r4, r4, #6
    2700:	0a64      	lsrs	r4, r4, #9
    2702:	b2c9      	uxtb	r1, r1
    2704:	4013      	ands	r3, r2
    2706:	e795      	b.n	2634 <__aeabi_fdiv+0x138>
    2708:	1b1b      	subs	r3, r3, r4
    270a:	261a      	movs	r6, #26
    270c:	2101      	movs	r1, #1
    270e:	e7c2      	b.n	2696 <__aeabi_fdiv+0x19a>
    2710:	9b00      	ldr	r3, [sp, #0]
    2712:	468b      	mov	fp, r1
    2714:	469a      	mov	sl, r3
    2716:	2400      	movs	r4, #0
    2718:	e74c      	b.n	25b4 <__aeabi_fdiv+0xb8>
    271a:	0263      	lsls	r3, r4, #9
    271c:	d5e5      	bpl.n	26ea <__aeabi_fdiv+0x1ee>
    271e:	2500      	movs	r5, #0
    2720:	2480      	movs	r4, #128	; 0x80
    2722:	03e4      	lsls	r4, r4, #15
    2724:	432c      	orrs	r4, r5
    2726:	0264      	lsls	r4, r4, #9
    2728:	0a64      	lsrs	r4, r4, #9
    272a:	9b00      	ldr	r3, [sp, #0]
    272c:	21ff      	movs	r1, #255	; 0xff
    272e:	e781      	b.n	2634 <__aeabi_fdiv+0x138>
    2730:	9501      	str	r5, [sp, #4]
    2732:	e7c1      	b.n	26b8 <__aeabi_fdiv+0x1bc>
    2734:	0023      	movs	r3, r4
    2736:	2020      	movs	r0, #32
    2738:	40cb      	lsrs	r3, r1
    273a:	1a41      	subs	r1, r0, r1
    273c:	408c      	lsls	r4, r1
    273e:	1e61      	subs	r1, r4, #1
    2740:	418c      	sbcs	r4, r1
    2742:	431c      	orrs	r4, r3
    2744:	0763      	lsls	r3, r4, #29
    2746:	d004      	beq.n	2752 <__aeabi_fdiv+0x256>
    2748:	230f      	movs	r3, #15
    274a:	4023      	ands	r3, r4
    274c:	2b04      	cmp	r3, #4
    274e:	d000      	beq.n	2752 <__aeabi_fdiv+0x256>
    2750:	3404      	adds	r4, #4
    2752:	0163      	lsls	r3, r4, #5
    2754:	d505      	bpl.n	2762 <__aeabi_fdiv+0x266>
    2756:	2301      	movs	r3, #1
    2758:	9a01      	ldr	r2, [sp, #4]
    275a:	2101      	movs	r1, #1
    275c:	4013      	ands	r3, r2
    275e:	2400      	movs	r4, #0
    2760:	e768      	b.n	2634 <__aeabi_fdiv+0x138>
    2762:	2301      	movs	r3, #1
    2764:	9a01      	ldr	r2, [sp, #4]
    2766:	01a4      	lsls	r4, r4, #6
    2768:	0a64      	lsrs	r4, r4, #9
    276a:	4013      	ands	r3, r2
    276c:	2100      	movs	r1, #0
    276e:	e761      	b.n	2634 <__aeabi_fdiv+0x138>
    2770:	2380      	movs	r3, #128	; 0x80
    2772:	03db      	lsls	r3, r3, #15
    2774:	431c      	orrs	r4, r3
    2776:	0264      	lsls	r4, r4, #9
    2778:	0a64      	lsrs	r4, r4, #9
    277a:	4653      	mov	r3, sl
    277c:	21ff      	movs	r1, #255	; 0xff
    277e:	e759      	b.n	2634 <__aeabi_fdiv+0x138>
    2780:	000031bc 	.word	0x000031bc
    2784:	000031fc 	.word	0x000031fc
    2788:	f7ffffff 	.word	0xf7ffffff

0000278c <__aeabi_fmul>:
    278c:	b5f8      	push	{r3, r4, r5, r6, r7, lr}
    278e:	4657      	mov	r7, sl
    2790:	464e      	mov	r6, r9
    2792:	4645      	mov	r5, r8
    2794:	46de      	mov	lr, fp
    2796:	b5e0      	push	{r5, r6, r7, lr}
    2798:	0247      	lsls	r7, r0, #9
    279a:	0046      	lsls	r6, r0, #1
    279c:	4688      	mov	r8, r1
    279e:	0a7f      	lsrs	r7, r7, #9
    27a0:	0e36      	lsrs	r6, r6, #24
    27a2:	0fc4      	lsrs	r4, r0, #31
    27a4:	2e00      	cmp	r6, #0
    27a6:	d047      	beq.n	2838 <__aeabi_fmul+0xac>
    27a8:	2eff      	cmp	r6, #255	; 0xff
    27aa:	d024      	beq.n	27f6 <__aeabi_fmul+0x6a>
    27ac:	00fb      	lsls	r3, r7, #3
    27ae:	2780      	movs	r7, #128	; 0x80
    27b0:	04ff      	lsls	r7, r7, #19
    27b2:	431f      	orrs	r7, r3
    27b4:	2300      	movs	r3, #0
    27b6:	4699      	mov	r9, r3
    27b8:	469a      	mov	sl, r3
    27ba:	3e7f      	subs	r6, #127	; 0x7f
    27bc:	4643      	mov	r3, r8
    27be:	025d      	lsls	r5, r3, #9
    27c0:	0058      	lsls	r0, r3, #1
    27c2:	0fdb      	lsrs	r3, r3, #31
    27c4:	0a6d      	lsrs	r5, r5, #9
    27c6:	0e00      	lsrs	r0, r0, #24
    27c8:	4698      	mov	r8, r3
    27ca:	d043      	beq.n	2854 <__aeabi_fmul+0xc8>
    27cc:	28ff      	cmp	r0, #255	; 0xff
    27ce:	d03b      	beq.n	2848 <__aeabi_fmul+0xbc>
    27d0:	00eb      	lsls	r3, r5, #3
    27d2:	2580      	movs	r5, #128	; 0x80
    27d4:	2200      	movs	r2, #0
    27d6:	04ed      	lsls	r5, r5, #19
    27d8:	431d      	orrs	r5, r3
    27da:	387f      	subs	r0, #127	; 0x7f
    27dc:	1836      	adds	r6, r6, r0
    27de:	1c73      	adds	r3, r6, #1
    27e0:	4641      	mov	r1, r8
    27e2:	469b      	mov	fp, r3
    27e4:	464b      	mov	r3, r9
    27e6:	4061      	eors	r1, r4
    27e8:	4313      	orrs	r3, r2
    27ea:	2b0f      	cmp	r3, #15
    27ec:	d864      	bhi.n	28b8 <__aeabi_fmul+0x12c>
    27ee:	4875      	ldr	r0, [pc, #468]	; (29c4 <__aeabi_fmul+0x238>)
    27f0:	009b      	lsls	r3, r3, #2
    27f2:	58c3      	ldr	r3, [r0, r3]
    27f4:	469f      	mov	pc, r3
    27f6:	2f00      	cmp	r7, #0
    27f8:	d142      	bne.n	2880 <__aeabi_fmul+0xf4>
    27fa:	2308      	movs	r3, #8
    27fc:	4699      	mov	r9, r3
    27fe:	3b06      	subs	r3, #6
    2800:	26ff      	movs	r6, #255	; 0xff
    2802:	469a      	mov	sl, r3
    2804:	e7da      	b.n	27bc <__aeabi_fmul+0x30>
    2806:	4641      	mov	r1, r8
    2808:	2a02      	cmp	r2, #2
    280a:	d028      	beq.n	285e <__aeabi_fmul+0xd2>
    280c:	2a03      	cmp	r2, #3
    280e:	d100      	bne.n	2812 <__aeabi_fmul+0x86>
    2810:	e0ce      	b.n	29b0 <__aeabi_fmul+0x224>
    2812:	2a01      	cmp	r2, #1
    2814:	d000      	beq.n	2818 <__aeabi_fmul+0x8c>
    2816:	e0ac      	b.n	2972 <__aeabi_fmul+0x1e6>
    2818:	4011      	ands	r1, r2
    281a:	2000      	movs	r0, #0
    281c:	2200      	movs	r2, #0
    281e:	b2cc      	uxtb	r4, r1
    2820:	0240      	lsls	r0, r0, #9
    2822:	05d2      	lsls	r2, r2, #23
    2824:	0a40      	lsrs	r0, r0, #9
    2826:	07e4      	lsls	r4, r4, #31
    2828:	4310      	orrs	r0, r2
    282a:	4320      	orrs	r0, r4
    282c:	bc3c      	pop	{r2, r3, r4, r5}
    282e:	4690      	mov	r8, r2
    2830:	4699      	mov	r9, r3
    2832:	46a2      	mov	sl, r4
    2834:	46ab      	mov	fp, r5
    2836:	bdf8      	pop	{r3, r4, r5, r6, r7, pc}
    2838:	2f00      	cmp	r7, #0
    283a:	d115      	bne.n	2868 <__aeabi_fmul+0xdc>
    283c:	2304      	movs	r3, #4
    283e:	4699      	mov	r9, r3
    2840:	3b03      	subs	r3, #3
    2842:	2600      	movs	r6, #0
    2844:	469a      	mov	sl, r3
    2846:	e7b9      	b.n	27bc <__aeabi_fmul+0x30>
    2848:	20ff      	movs	r0, #255	; 0xff
    284a:	2202      	movs	r2, #2
    284c:	2d00      	cmp	r5, #0
    284e:	d0c5      	beq.n	27dc <__aeabi_fmul+0x50>
    2850:	2203      	movs	r2, #3
    2852:	e7c3      	b.n	27dc <__aeabi_fmul+0x50>
    2854:	2d00      	cmp	r5, #0
    2856:	d119      	bne.n	288c <__aeabi_fmul+0x100>
    2858:	2000      	movs	r0, #0
    285a:	2201      	movs	r2, #1
    285c:	e7be      	b.n	27dc <__aeabi_fmul+0x50>
    285e:	2401      	movs	r4, #1
    2860:	22ff      	movs	r2, #255	; 0xff
    2862:	400c      	ands	r4, r1
    2864:	2000      	movs	r0, #0
    2866:	e7db      	b.n	2820 <__aeabi_fmul+0x94>
    2868:	0038      	movs	r0, r7
    286a:	f000 fa9b 	bl	2da4 <__clzsi2>
    286e:	2676      	movs	r6, #118	; 0x76
    2870:	1f43      	subs	r3, r0, #5
    2872:	409f      	lsls	r7, r3
    2874:	2300      	movs	r3, #0
    2876:	4276      	negs	r6, r6
    2878:	1a36      	subs	r6, r6, r0
    287a:	4699      	mov	r9, r3
    287c:	469a      	mov	sl, r3
    287e:	e79d      	b.n	27bc <__aeabi_fmul+0x30>
    2880:	230c      	movs	r3, #12
    2882:	4699      	mov	r9, r3
    2884:	3b09      	subs	r3, #9
    2886:	26ff      	movs	r6, #255	; 0xff
    2888:	469a      	mov	sl, r3
    288a:	e797      	b.n	27bc <__aeabi_fmul+0x30>
    288c:	0028      	movs	r0, r5
    288e:	f000 fa89 	bl	2da4 <__clzsi2>
    2892:	1f43      	subs	r3, r0, #5
    2894:	409d      	lsls	r5, r3
    2896:	2376      	movs	r3, #118	; 0x76
    2898:	425b      	negs	r3, r3
    289a:	1a18      	subs	r0, r3, r0
    289c:	2200      	movs	r2, #0
    289e:	e79d      	b.n	27dc <__aeabi_fmul+0x50>
    28a0:	2080      	movs	r0, #128	; 0x80
    28a2:	2400      	movs	r4, #0
    28a4:	03c0      	lsls	r0, r0, #15
    28a6:	22ff      	movs	r2, #255	; 0xff
    28a8:	e7ba      	b.n	2820 <__aeabi_fmul+0x94>
    28aa:	003d      	movs	r5, r7
    28ac:	4652      	mov	r2, sl
    28ae:	e7ab      	b.n	2808 <__aeabi_fmul+0x7c>
    28b0:	003d      	movs	r5, r7
    28b2:	0021      	movs	r1, r4
    28b4:	4652      	mov	r2, sl
    28b6:	e7a7      	b.n	2808 <__aeabi_fmul+0x7c>
    28b8:	0c3b      	lsrs	r3, r7, #16
    28ba:	469c      	mov	ip, r3
    28bc:	042a      	lsls	r2, r5, #16
    28be:	0c12      	lsrs	r2, r2, #16
    28c0:	0c2b      	lsrs	r3, r5, #16
    28c2:	0014      	movs	r4, r2
    28c4:	4660      	mov	r0, ip
    28c6:	4665      	mov	r5, ip
    28c8:	043f      	lsls	r7, r7, #16
    28ca:	0c3f      	lsrs	r7, r7, #16
    28cc:	437c      	muls	r4, r7
    28ce:	4342      	muls	r2, r0
    28d0:	435d      	muls	r5, r3
    28d2:	437b      	muls	r3, r7
    28d4:	0c27      	lsrs	r7, r4, #16
    28d6:	189b      	adds	r3, r3, r2
    28d8:	18ff      	adds	r7, r7, r3
    28da:	42ba      	cmp	r2, r7
    28dc:	d903      	bls.n	28e6 <__aeabi_fmul+0x15a>
    28de:	2380      	movs	r3, #128	; 0x80
    28e0:	025b      	lsls	r3, r3, #9
    28e2:	469c      	mov	ip, r3
    28e4:	4465      	add	r5, ip
    28e6:	0424      	lsls	r4, r4, #16
    28e8:	043a      	lsls	r2, r7, #16
    28ea:	0c24      	lsrs	r4, r4, #16
    28ec:	1912      	adds	r2, r2, r4
    28ee:	0193      	lsls	r3, r2, #6
    28f0:	1e5c      	subs	r4, r3, #1
    28f2:	41a3      	sbcs	r3, r4
    28f4:	0c3f      	lsrs	r7, r7, #16
    28f6:	0e92      	lsrs	r2, r2, #26
    28f8:	197d      	adds	r5, r7, r5
    28fa:	431a      	orrs	r2, r3
    28fc:	01ad      	lsls	r5, r5, #6
    28fe:	4315      	orrs	r5, r2
    2900:	012b      	lsls	r3, r5, #4
    2902:	d504      	bpl.n	290e <__aeabi_fmul+0x182>
    2904:	2301      	movs	r3, #1
    2906:	465e      	mov	r6, fp
    2908:	086a      	lsrs	r2, r5, #1
    290a:	401d      	ands	r5, r3
    290c:	4315      	orrs	r5, r2
    290e:	0032      	movs	r2, r6
    2910:	327f      	adds	r2, #127	; 0x7f
    2912:	2a00      	cmp	r2, #0
    2914:	dd25      	ble.n	2962 <__aeabi_fmul+0x1d6>
    2916:	076b      	lsls	r3, r5, #29
    2918:	d004      	beq.n	2924 <__aeabi_fmul+0x198>
    291a:	230f      	movs	r3, #15
    291c:	402b      	ands	r3, r5
    291e:	2b04      	cmp	r3, #4
    2920:	d000      	beq.n	2924 <__aeabi_fmul+0x198>
    2922:	3504      	adds	r5, #4
    2924:	012b      	lsls	r3, r5, #4
    2926:	d503      	bpl.n	2930 <__aeabi_fmul+0x1a4>
    2928:	0032      	movs	r2, r6
    292a:	4b27      	ldr	r3, [pc, #156]	; (29c8 <__aeabi_fmul+0x23c>)
    292c:	3280      	adds	r2, #128	; 0x80
    292e:	401d      	ands	r5, r3
    2930:	2afe      	cmp	r2, #254	; 0xfe
    2932:	dc94      	bgt.n	285e <__aeabi_fmul+0xd2>
    2934:	2401      	movs	r4, #1
    2936:	01a8      	lsls	r0, r5, #6
    2938:	0a40      	lsrs	r0, r0, #9
    293a:	b2d2      	uxtb	r2, r2
    293c:	400c      	ands	r4, r1
    293e:	e76f      	b.n	2820 <__aeabi_fmul+0x94>
    2940:	2080      	movs	r0, #128	; 0x80
    2942:	03c0      	lsls	r0, r0, #15
    2944:	4207      	tst	r7, r0
    2946:	d007      	beq.n	2958 <__aeabi_fmul+0x1cc>
    2948:	4205      	tst	r5, r0
    294a:	d105      	bne.n	2958 <__aeabi_fmul+0x1cc>
    294c:	4328      	orrs	r0, r5
    294e:	0240      	lsls	r0, r0, #9
    2950:	0a40      	lsrs	r0, r0, #9
    2952:	4644      	mov	r4, r8
    2954:	22ff      	movs	r2, #255	; 0xff
    2956:	e763      	b.n	2820 <__aeabi_fmul+0x94>
    2958:	4338      	orrs	r0, r7
    295a:	0240      	lsls	r0, r0, #9
    295c:	0a40      	lsrs	r0, r0, #9
    295e:	22ff      	movs	r2, #255	; 0xff
    2960:	e75e      	b.n	2820 <__aeabi_fmul+0x94>
    2962:	2401      	movs	r4, #1
    2964:	1aa3      	subs	r3, r4, r2
    2966:	2b1b      	cmp	r3, #27
    2968:	dd05      	ble.n	2976 <__aeabi_fmul+0x1ea>
    296a:	400c      	ands	r4, r1
    296c:	2200      	movs	r2, #0
    296e:	2000      	movs	r0, #0
    2970:	e756      	b.n	2820 <__aeabi_fmul+0x94>
    2972:	465e      	mov	r6, fp
    2974:	e7cb      	b.n	290e <__aeabi_fmul+0x182>
    2976:	002a      	movs	r2, r5
    2978:	2020      	movs	r0, #32
    297a:	40da      	lsrs	r2, r3
    297c:	1ac3      	subs	r3, r0, r3
    297e:	409d      	lsls	r5, r3
    2980:	002b      	movs	r3, r5
    2982:	1e5d      	subs	r5, r3, #1
    2984:	41ab      	sbcs	r3, r5
    2986:	4313      	orrs	r3, r2
    2988:	075a      	lsls	r2, r3, #29
    298a:	d004      	beq.n	2996 <__aeabi_fmul+0x20a>
    298c:	220f      	movs	r2, #15
    298e:	401a      	ands	r2, r3
    2990:	2a04      	cmp	r2, #4
    2992:	d000      	beq.n	2996 <__aeabi_fmul+0x20a>
    2994:	3304      	adds	r3, #4
    2996:	015a      	lsls	r2, r3, #5
    2998:	d504      	bpl.n	29a4 <__aeabi_fmul+0x218>
    299a:	2401      	movs	r4, #1
    299c:	2201      	movs	r2, #1
    299e:	400c      	ands	r4, r1
    29a0:	2000      	movs	r0, #0
    29a2:	e73d      	b.n	2820 <__aeabi_fmul+0x94>
    29a4:	2401      	movs	r4, #1
    29a6:	019b      	lsls	r3, r3, #6
    29a8:	0a58      	lsrs	r0, r3, #9
    29aa:	400c      	ands	r4, r1
    29ac:	2200      	movs	r2, #0
    29ae:	e737      	b.n	2820 <__aeabi_fmul+0x94>
    29b0:	2080      	movs	r0, #128	; 0x80
    29b2:	2401      	movs	r4, #1
    29b4:	03c0      	lsls	r0, r0, #15
    29b6:	4328      	orrs	r0, r5
    29b8:	0240      	lsls	r0, r0, #9
    29ba:	0a40      	lsrs	r0, r0, #9
    29bc:	400c      	ands	r4, r1
    29be:	22ff      	movs	r2, #255	; 0xff
    29c0:	e72e      	b.n	2820 <__aeabi_fmul+0x94>
    29c2:	46c0      	nop			; (mov r8, r8)
    29c4:	0000323c 	.word	0x0000323c
    29c8:	f7ffffff 	.word	0xf7ffffff

000029cc <__aeabi_fsub>:
    29cc:	b5f0      	push	{r4, r5, r6, r7, lr}
    29ce:	464f      	mov	r7, r9
    29d0:	46d6      	mov	lr, sl
    29d2:	4646      	mov	r6, r8
    29d4:	0044      	lsls	r4, r0, #1
    29d6:	b5c0      	push	{r6, r7, lr}
    29d8:	0fc2      	lsrs	r2, r0, #31
    29da:	0247      	lsls	r7, r0, #9
    29dc:	0248      	lsls	r0, r1, #9
    29de:	0a40      	lsrs	r0, r0, #9
    29e0:	4684      	mov	ip, r0
    29e2:	4666      	mov	r6, ip
    29e4:	0a7b      	lsrs	r3, r7, #9
    29e6:	0048      	lsls	r0, r1, #1
    29e8:	0fc9      	lsrs	r1, r1, #31
    29ea:	469a      	mov	sl, r3
    29ec:	0e24      	lsrs	r4, r4, #24
    29ee:	0015      	movs	r5, r2
    29f0:	00db      	lsls	r3, r3, #3
    29f2:	0e00      	lsrs	r0, r0, #24
    29f4:	4689      	mov	r9, r1
    29f6:	00f6      	lsls	r6, r6, #3
    29f8:	28ff      	cmp	r0, #255	; 0xff
    29fa:	d100      	bne.n	29fe <__aeabi_fsub+0x32>
    29fc:	e08f      	b.n	2b1e <__aeabi_fsub+0x152>
    29fe:	2101      	movs	r1, #1
    2a00:	464f      	mov	r7, r9
    2a02:	404f      	eors	r7, r1
    2a04:	0039      	movs	r1, r7
    2a06:	4291      	cmp	r1, r2
    2a08:	d066      	beq.n	2ad8 <__aeabi_fsub+0x10c>
    2a0a:	1a22      	subs	r2, r4, r0
    2a0c:	2a00      	cmp	r2, #0
    2a0e:	dc00      	bgt.n	2a12 <__aeabi_fsub+0x46>
    2a10:	e09d      	b.n	2b4e <__aeabi_fsub+0x182>
    2a12:	2800      	cmp	r0, #0
    2a14:	d13d      	bne.n	2a92 <__aeabi_fsub+0xc6>
    2a16:	2e00      	cmp	r6, #0
    2a18:	d100      	bne.n	2a1c <__aeabi_fsub+0x50>
    2a1a:	e08b      	b.n	2b34 <__aeabi_fsub+0x168>
    2a1c:	1e51      	subs	r1, r2, #1
    2a1e:	2900      	cmp	r1, #0
    2a20:	d000      	beq.n	2a24 <__aeabi_fsub+0x58>
    2a22:	e0b5      	b.n	2b90 <__aeabi_fsub+0x1c4>
    2a24:	2401      	movs	r4, #1
    2a26:	1b9b      	subs	r3, r3, r6
    2a28:	015a      	lsls	r2, r3, #5
    2a2a:	d544      	bpl.n	2ab6 <__aeabi_fsub+0xea>
    2a2c:	019b      	lsls	r3, r3, #6
    2a2e:	099f      	lsrs	r7, r3, #6
    2a30:	0038      	movs	r0, r7
    2a32:	f000 f9b7 	bl	2da4 <__clzsi2>
    2a36:	3805      	subs	r0, #5
    2a38:	4087      	lsls	r7, r0
    2a3a:	4284      	cmp	r4, r0
    2a3c:	dd00      	ble.n	2a40 <__aeabi_fsub+0x74>
    2a3e:	e096      	b.n	2b6e <__aeabi_fsub+0x1a2>
    2a40:	1b04      	subs	r4, r0, r4
    2a42:	003a      	movs	r2, r7
    2a44:	2020      	movs	r0, #32
    2a46:	3401      	adds	r4, #1
    2a48:	40e2      	lsrs	r2, r4
    2a4a:	1b04      	subs	r4, r0, r4
    2a4c:	40a7      	lsls	r7, r4
    2a4e:	003b      	movs	r3, r7
    2a50:	1e5f      	subs	r7, r3, #1
    2a52:	41bb      	sbcs	r3, r7
    2a54:	2400      	movs	r4, #0
    2a56:	4313      	orrs	r3, r2
    2a58:	075a      	lsls	r2, r3, #29
    2a5a:	d004      	beq.n	2a66 <__aeabi_fsub+0x9a>
    2a5c:	220f      	movs	r2, #15
    2a5e:	401a      	ands	r2, r3
    2a60:	2a04      	cmp	r2, #4
    2a62:	d000      	beq.n	2a66 <__aeabi_fsub+0x9a>
    2a64:	3304      	adds	r3, #4
    2a66:	015a      	lsls	r2, r3, #5
    2a68:	d527      	bpl.n	2aba <__aeabi_fsub+0xee>
    2a6a:	3401      	adds	r4, #1
    2a6c:	2cff      	cmp	r4, #255	; 0xff
    2a6e:	d100      	bne.n	2a72 <__aeabi_fsub+0xa6>
    2a70:	e079      	b.n	2b66 <__aeabi_fsub+0x19a>
    2a72:	2201      	movs	r2, #1
    2a74:	019b      	lsls	r3, r3, #6
    2a76:	0a5b      	lsrs	r3, r3, #9
    2a78:	b2e4      	uxtb	r4, r4
    2a7a:	402a      	ands	r2, r5
    2a7c:	025b      	lsls	r3, r3, #9
    2a7e:	05e4      	lsls	r4, r4, #23
    2a80:	0a58      	lsrs	r0, r3, #9
    2a82:	07d2      	lsls	r2, r2, #31
    2a84:	4320      	orrs	r0, r4
    2a86:	4310      	orrs	r0, r2
    2a88:	bc1c      	pop	{r2, r3, r4}
    2a8a:	4690      	mov	r8, r2
    2a8c:	4699      	mov	r9, r3
    2a8e:	46a2      	mov	sl, r4
    2a90:	bdf0      	pop	{r4, r5, r6, r7, pc}
    2a92:	2cff      	cmp	r4, #255	; 0xff
    2a94:	d0e0      	beq.n	2a58 <__aeabi_fsub+0x8c>
    2a96:	2180      	movs	r1, #128	; 0x80
    2a98:	04c9      	lsls	r1, r1, #19
    2a9a:	430e      	orrs	r6, r1
    2a9c:	2a1b      	cmp	r2, #27
    2a9e:	dc7b      	bgt.n	2b98 <__aeabi_fsub+0x1cc>
    2aa0:	0031      	movs	r1, r6
    2aa2:	2020      	movs	r0, #32
    2aa4:	40d1      	lsrs	r1, r2
    2aa6:	1a82      	subs	r2, r0, r2
    2aa8:	4096      	lsls	r6, r2
    2aaa:	1e72      	subs	r2, r6, #1
    2aac:	4196      	sbcs	r6, r2
    2aae:	430e      	orrs	r6, r1
    2ab0:	1b9b      	subs	r3, r3, r6
    2ab2:	015a      	lsls	r2, r3, #5
    2ab4:	d4ba      	bmi.n	2a2c <__aeabi_fsub+0x60>
    2ab6:	075a      	lsls	r2, r3, #29
    2ab8:	d1d0      	bne.n	2a5c <__aeabi_fsub+0x90>
    2aba:	2201      	movs	r2, #1
    2abc:	08df      	lsrs	r7, r3, #3
    2abe:	402a      	ands	r2, r5
    2ac0:	2cff      	cmp	r4, #255	; 0xff
    2ac2:	d133      	bne.n	2b2c <__aeabi_fsub+0x160>
    2ac4:	2f00      	cmp	r7, #0
    2ac6:	d100      	bne.n	2aca <__aeabi_fsub+0xfe>
    2ac8:	e0a8      	b.n	2c1c <__aeabi_fsub+0x250>
    2aca:	2380      	movs	r3, #128	; 0x80
    2acc:	03db      	lsls	r3, r3, #15
    2ace:	433b      	orrs	r3, r7
    2ad0:	025b      	lsls	r3, r3, #9
    2ad2:	0a5b      	lsrs	r3, r3, #9
    2ad4:	24ff      	movs	r4, #255	; 0xff
    2ad6:	e7d1      	b.n	2a7c <__aeabi_fsub+0xb0>
    2ad8:	1a21      	subs	r1, r4, r0
    2ada:	2900      	cmp	r1, #0
    2adc:	dd4c      	ble.n	2b78 <__aeabi_fsub+0x1ac>
    2ade:	2800      	cmp	r0, #0
    2ae0:	d02a      	beq.n	2b38 <__aeabi_fsub+0x16c>
    2ae2:	2cff      	cmp	r4, #255	; 0xff
    2ae4:	d0b8      	beq.n	2a58 <__aeabi_fsub+0x8c>
    2ae6:	2080      	movs	r0, #128	; 0x80
    2ae8:	04c0      	lsls	r0, r0, #19
    2aea:	4306      	orrs	r6, r0
    2aec:	291b      	cmp	r1, #27
    2aee:	dd00      	ble.n	2af2 <__aeabi_fsub+0x126>
    2af0:	e0af      	b.n	2c52 <__aeabi_fsub+0x286>
    2af2:	0030      	movs	r0, r6
    2af4:	2720      	movs	r7, #32
    2af6:	40c8      	lsrs	r0, r1
    2af8:	1a79      	subs	r1, r7, r1
    2afa:	408e      	lsls	r6, r1
    2afc:	1e71      	subs	r1, r6, #1
    2afe:	418e      	sbcs	r6, r1
    2b00:	4306      	orrs	r6, r0
    2b02:	199b      	adds	r3, r3, r6
    2b04:	0159      	lsls	r1, r3, #5
    2b06:	d5d6      	bpl.n	2ab6 <__aeabi_fsub+0xea>
    2b08:	3401      	adds	r4, #1
    2b0a:	2cff      	cmp	r4, #255	; 0xff
    2b0c:	d100      	bne.n	2b10 <__aeabi_fsub+0x144>
    2b0e:	e085      	b.n	2c1c <__aeabi_fsub+0x250>
    2b10:	2201      	movs	r2, #1
    2b12:	497a      	ldr	r1, [pc, #488]	; (2cfc <__aeabi_fsub+0x330>)
    2b14:	401a      	ands	r2, r3
    2b16:	085b      	lsrs	r3, r3, #1
    2b18:	400b      	ands	r3, r1
    2b1a:	4313      	orrs	r3, r2
    2b1c:	e79c      	b.n	2a58 <__aeabi_fsub+0x8c>
    2b1e:	2e00      	cmp	r6, #0
    2b20:	d000      	beq.n	2b24 <__aeabi_fsub+0x158>
    2b22:	e770      	b.n	2a06 <__aeabi_fsub+0x3a>
    2b24:	e76b      	b.n	29fe <__aeabi_fsub+0x32>
    2b26:	1e3b      	subs	r3, r7, #0
    2b28:	d1c5      	bne.n	2ab6 <__aeabi_fsub+0xea>
    2b2a:	2200      	movs	r2, #0
    2b2c:	027b      	lsls	r3, r7, #9
    2b2e:	0a5b      	lsrs	r3, r3, #9
    2b30:	b2e4      	uxtb	r4, r4
    2b32:	e7a3      	b.n	2a7c <__aeabi_fsub+0xb0>
    2b34:	0014      	movs	r4, r2
    2b36:	e78f      	b.n	2a58 <__aeabi_fsub+0x8c>
    2b38:	2e00      	cmp	r6, #0
    2b3a:	d04d      	beq.n	2bd8 <__aeabi_fsub+0x20c>
    2b3c:	1e48      	subs	r0, r1, #1
    2b3e:	2800      	cmp	r0, #0
    2b40:	d157      	bne.n	2bf2 <__aeabi_fsub+0x226>
    2b42:	199b      	adds	r3, r3, r6
    2b44:	2401      	movs	r4, #1
    2b46:	015a      	lsls	r2, r3, #5
    2b48:	d5b5      	bpl.n	2ab6 <__aeabi_fsub+0xea>
    2b4a:	2402      	movs	r4, #2
    2b4c:	e7e0      	b.n	2b10 <__aeabi_fsub+0x144>
    2b4e:	2a00      	cmp	r2, #0
    2b50:	d125      	bne.n	2b9e <__aeabi_fsub+0x1d2>
    2b52:	1c62      	adds	r2, r4, #1
    2b54:	b2d2      	uxtb	r2, r2
    2b56:	2a01      	cmp	r2, #1
    2b58:	dd72      	ble.n	2c40 <__aeabi_fsub+0x274>
    2b5a:	1b9f      	subs	r7, r3, r6
    2b5c:	017a      	lsls	r2, r7, #5
    2b5e:	d535      	bpl.n	2bcc <__aeabi_fsub+0x200>
    2b60:	1af7      	subs	r7, r6, r3
    2b62:	000d      	movs	r5, r1
    2b64:	e764      	b.n	2a30 <__aeabi_fsub+0x64>
    2b66:	2201      	movs	r2, #1
    2b68:	2300      	movs	r3, #0
    2b6a:	402a      	ands	r2, r5
    2b6c:	e786      	b.n	2a7c <__aeabi_fsub+0xb0>
    2b6e:	003b      	movs	r3, r7
    2b70:	4a63      	ldr	r2, [pc, #396]	; (2d00 <__aeabi_fsub+0x334>)
    2b72:	1a24      	subs	r4, r4, r0
    2b74:	4013      	ands	r3, r2
    2b76:	e76f      	b.n	2a58 <__aeabi_fsub+0x8c>
    2b78:	2900      	cmp	r1, #0
    2b7a:	d16c      	bne.n	2c56 <__aeabi_fsub+0x28a>
    2b7c:	1c61      	adds	r1, r4, #1
    2b7e:	b2c8      	uxtb	r0, r1
    2b80:	2801      	cmp	r0, #1
    2b82:	dd4e      	ble.n	2c22 <__aeabi_fsub+0x256>
    2b84:	29ff      	cmp	r1, #255	; 0xff
    2b86:	d049      	beq.n	2c1c <__aeabi_fsub+0x250>
    2b88:	199b      	adds	r3, r3, r6
    2b8a:	085b      	lsrs	r3, r3, #1
    2b8c:	000c      	movs	r4, r1
    2b8e:	e763      	b.n	2a58 <__aeabi_fsub+0x8c>
    2b90:	2aff      	cmp	r2, #255	; 0xff
    2b92:	d041      	beq.n	2c18 <__aeabi_fsub+0x24c>
    2b94:	000a      	movs	r2, r1
    2b96:	e781      	b.n	2a9c <__aeabi_fsub+0xd0>
    2b98:	2601      	movs	r6, #1
    2b9a:	1b9b      	subs	r3, r3, r6
    2b9c:	e789      	b.n	2ab2 <__aeabi_fsub+0xe6>
    2b9e:	2c00      	cmp	r4, #0
    2ba0:	d01c      	beq.n	2bdc <__aeabi_fsub+0x210>
    2ba2:	28ff      	cmp	r0, #255	; 0xff
    2ba4:	d021      	beq.n	2bea <__aeabi_fsub+0x21e>
    2ba6:	2480      	movs	r4, #128	; 0x80
    2ba8:	04e4      	lsls	r4, r4, #19
    2baa:	4252      	negs	r2, r2
    2bac:	4323      	orrs	r3, r4
    2bae:	2a1b      	cmp	r2, #27
    2bb0:	dd00      	ble.n	2bb4 <__aeabi_fsub+0x1e8>
    2bb2:	e096      	b.n	2ce2 <__aeabi_fsub+0x316>
    2bb4:	001c      	movs	r4, r3
    2bb6:	2520      	movs	r5, #32
    2bb8:	40d4      	lsrs	r4, r2
    2bba:	1aaa      	subs	r2, r5, r2
    2bbc:	4093      	lsls	r3, r2
    2bbe:	1e5a      	subs	r2, r3, #1
    2bc0:	4193      	sbcs	r3, r2
    2bc2:	4323      	orrs	r3, r4
    2bc4:	1af3      	subs	r3, r6, r3
    2bc6:	0004      	movs	r4, r0
    2bc8:	000d      	movs	r5, r1
    2bca:	e72d      	b.n	2a28 <__aeabi_fsub+0x5c>
    2bcc:	2f00      	cmp	r7, #0
    2bce:	d000      	beq.n	2bd2 <__aeabi_fsub+0x206>
    2bd0:	e72e      	b.n	2a30 <__aeabi_fsub+0x64>
    2bd2:	2200      	movs	r2, #0
    2bd4:	2400      	movs	r4, #0
    2bd6:	e7a9      	b.n	2b2c <__aeabi_fsub+0x160>
    2bd8:	000c      	movs	r4, r1
    2bda:	e73d      	b.n	2a58 <__aeabi_fsub+0x8c>
    2bdc:	2b00      	cmp	r3, #0
    2bde:	d058      	beq.n	2c92 <__aeabi_fsub+0x2c6>
    2be0:	43d2      	mvns	r2, r2
    2be2:	2a00      	cmp	r2, #0
    2be4:	d0ee      	beq.n	2bc4 <__aeabi_fsub+0x1f8>
    2be6:	28ff      	cmp	r0, #255	; 0xff
    2be8:	d1e1      	bne.n	2bae <__aeabi_fsub+0x1e2>
    2bea:	0033      	movs	r3, r6
    2bec:	24ff      	movs	r4, #255	; 0xff
    2bee:	000d      	movs	r5, r1
    2bf0:	e732      	b.n	2a58 <__aeabi_fsub+0x8c>
    2bf2:	29ff      	cmp	r1, #255	; 0xff
    2bf4:	d010      	beq.n	2c18 <__aeabi_fsub+0x24c>
    2bf6:	0001      	movs	r1, r0
    2bf8:	e778      	b.n	2aec <__aeabi_fsub+0x120>
    2bfa:	2b00      	cmp	r3, #0
    2bfc:	d06e      	beq.n	2cdc <__aeabi_fsub+0x310>
    2bfe:	24ff      	movs	r4, #255	; 0xff
    2c00:	2e00      	cmp	r6, #0
    2c02:	d100      	bne.n	2c06 <__aeabi_fsub+0x23a>
    2c04:	e728      	b.n	2a58 <__aeabi_fsub+0x8c>
    2c06:	2280      	movs	r2, #128	; 0x80
    2c08:	4651      	mov	r1, sl
    2c0a:	03d2      	lsls	r2, r2, #15
    2c0c:	4211      	tst	r1, r2
    2c0e:	d003      	beq.n	2c18 <__aeabi_fsub+0x24c>
    2c10:	4661      	mov	r1, ip
    2c12:	4211      	tst	r1, r2
    2c14:	d100      	bne.n	2c18 <__aeabi_fsub+0x24c>
    2c16:	0033      	movs	r3, r6
    2c18:	24ff      	movs	r4, #255	; 0xff
    2c1a:	e71d      	b.n	2a58 <__aeabi_fsub+0x8c>
    2c1c:	24ff      	movs	r4, #255	; 0xff
    2c1e:	2300      	movs	r3, #0
    2c20:	e72c      	b.n	2a7c <__aeabi_fsub+0xb0>
    2c22:	2c00      	cmp	r4, #0
    2c24:	d1e9      	bne.n	2bfa <__aeabi_fsub+0x22e>
    2c26:	2b00      	cmp	r3, #0
    2c28:	d063      	beq.n	2cf2 <__aeabi_fsub+0x326>
    2c2a:	2e00      	cmp	r6, #0
    2c2c:	d100      	bne.n	2c30 <__aeabi_fsub+0x264>
    2c2e:	e713      	b.n	2a58 <__aeabi_fsub+0x8c>
    2c30:	199b      	adds	r3, r3, r6
    2c32:	015a      	lsls	r2, r3, #5
    2c34:	d400      	bmi.n	2c38 <__aeabi_fsub+0x26c>
    2c36:	e73e      	b.n	2ab6 <__aeabi_fsub+0xea>
    2c38:	4a31      	ldr	r2, [pc, #196]	; (2d00 <__aeabi_fsub+0x334>)
    2c3a:	000c      	movs	r4, r1
    2c3c:	4013      	ands	r3, r2
    2c3e:	e70b      	b.n	2a58 <__aeabi_fsub+0x8c>
    2c40:	2c00      	cmp	r4, #0
    2c42:	d11e      	bne.n	2c82 <__aeabi_fsub+0x2b6>
    2c44:	2b00      	cmp	r3, #0
    2c46:	d12f      	bne.n	2ca8 <__aeabi_fsub+0x2dc>
    2c48:	2e00      	cmp	r6, #0
    2c4a:	d04f      	beq.n	2cec <__aeabi_fsub+0x320>
    2c4c:	0033      	movs	r3, r6
    2c4e:	000d      	movs	r5, r1
    2c50:	e702      	b.n	2a58 <__aeabi_fsub+0x8c>
    2c52:	2601      	movs	r6, #1
    2c54:	e755      	b.n	2b02 <__aeabi_fsub+0x136>
    2c56:	2c00      	cmp	r4, #0
    2c58:	d11f      	bne.n	2c9a <__aeabi_fsub+0x2ce>
    2c5a:	2b00      	cmp	r3, #0
    2c5c:	d043      	beq.n	2ce6 <__aeabi_fsub+0x31a>
    2c5e:	43c9      	mvns	r1, r1
    2c60:	2900      	cmp	r1, #0
    2c62:	d00b      	beq.n	2c7c <__aeabi_fsub+0x2b0>
    2c64:	28ff      	cmp	r0, #255	; 0xff
    2c66:	d039      	beq.n	2cdc <__aeabi_fsub+0x310>
    2c68:	291b      	cmp	r1, #27
    2c6a:	dc44      	bgt.n	2cf6 <__aeabi_fsub+0x32a>
    2c6c:	001c      	movs	r4, r3
    2c6e:	2720      	movs	r7, #32
    2c70:	40cc      	lsrs	r4, r1
    2c72:	1a79      	subs	r1, r7, r1
    2c74:	408b      	lsls	r3, r1
    2c76:	1e59      	subs	r1, r3, #1
    2c78:	418b      	sbcs	r3, r1
    2c7a:	4323      	orrs	r3, r4
    2c7c:	199b      	adds	r3, r3, r6
    2c7e:	0004      	movs	r4, r0
    2c80:	e740      	b.n	2b04 <__aeabi_fsub+0x138>
    2c82:	2b00      	cmp	r3, #0
    2c84:	d11a      	bne.n	2cbc <__aeabi_fsub+0x2f0>
    2c86:	2e00      	cmp	r6, #0
    2c88:	d124      	bne.n	2cd4 <__aeabi_fsub+0x308>
    2c8a:	2780      	movs	r7, #128	; 0x80
    2c8c:	2200      	movs	r2, #0
    2c8e:	03ff      	lsls	r7, r7, #15
    2c90:	e71b      	b.n	2aca <__aeabi_fsub+0xfe>
    2c92:	0033      	movs	r3, r6
    2c94:	0004      	movs	r4, r0
    2c96:	000d      	movs	r5, r1
    2c98:	e6de      	b.n	2a58 <__aeabi_fsub+0x8c>
    2c9a:	28ff      	cmp	r0, #255	; 0xff
    2c9c:	d01e      	beq.n	2cdc <__aeabi_fsub+0x310>
    2c9e:	2480      	movs	r4, #128	; 0x80
    2ca0:	04e4      	lsls	r4, r4, #19
    2ca2:	4249      	negs	r1, r1
    2ca4:	4323      	orrs	r3, r4
    2ca6:	e7df      	b.n	2c68 <__aeabi_fsub+0x29c>
    2ca8:	2e00      	cmp	r6, #0
    2caa:	d100      	bne.n	2cae <__aeabi_fsub+0x2e2>
    2cac:	e6d4      	b.n	2a58 <__aeabi_fsub+0x8c>
    2cae:	1b9f      	subs	r7, r3, r6
    2cb0:	017a      	lsls	r2, r7, #5
    2cb2:	d400      	bmi.n	2cb6 <__aeabi_fsub+0x2ea>
    2cb4:	e737      	b.n	2b26 <__aeabi_fsub+0x15a>
    2cb6:	1af3      	subs	r3, r6, r3
    2cb8:	000d      	movs	r5, r1
    2cba:	e6cd      	b.n	2a58 <__aeabi_fsub+0x8c>
    2cbc:	24ff      	movs	r4, #255	; 0xff
    2cbe:	2e00      	cmp	r6, #0
    2cc0:	d100      	bne.n	2cc4 <__aeabi_fsub+0x2f8>
    2cc2:	e6c9      	b.n	2a58 <__aeabi_fsub+0x8c>
    2cc4:	2280      	movs	r2, #128	; 0x80
    2cc6:	4650      	mov	r0, sl
    2cc8:	03d2      	lsls	r2, r2, #15
    2cca:	4210      	tst	r0, r2
    2ccc:	d0a4      	beq.n	2c18 <__aeabi_fsub+0x24c>
    2cce:	4660      	mov	r0, ip
    2cd0:	4210      	tst	r0, r2
    2cd2:	d1a1      	bne.n	2c18 <__aeabi_fsub+0x24c>
    2cd4:	0033      	movs	r3, r6
    2cd6:	000d      	movs	r5, r1
    2cd8:	24ff      	movs	r4, #255	; 0xff
    2cda:	e6bd      	b.n	2a58 <__aeabi_fsub+0x8c>
    2cdc:	0033      	movs	r3, r6
    2cde:	24ff      	movs	r4, #255	; 0xff
    2ce0:	e6ba      	b.n	2a58 <__aeabi_fsub+0x8c>
    2ce2:	2301      	movs	r3, #1
    2ce4:	e76e      	b.n	2bc4 <__aeabi_fsub+0x1f8>
    2ce6:	0033      	movs	r3, r6
    2ce8:	0004      	movs	r4, r0
    2cea:	e6b5      	b.n	2a58 <__aeabi_fsub+0x8c>
    2cec:	2700      	movs	r7, #0
    2cee:	2200      	movs	r2, #0
    2cf0:	e71c      	b.n	2b2c <__aeabi_fsub+0x160>
    2cf2:	0033      	movs	r3, r6
    2cf4:	e6b0      	b.n	2a58 <__aeabi_fsub+0x8c>
    2cf6:	2301      	movs	r3, #1
    2cf8:	e7c0      	b.n	2c7c <__aeabi_fsub+0x2b0>
    2cfa:	46c0      	nop			; (mov r8, r8)
    2cfc:	7dffffff 	.word	0x7dffffff
    2d00:	fbffffff 	.word	0xfbffffff

00002d04 <__aeabi_i2f>:
    2d04:	b570      	push	{r4, r5, r6, lr}
    2d06:	2800      	cmp	r0, #0
    2d08:	d030      	beq.n	2d6c <__aeabi_i2f+0x68>
    2d0a:	17c3      	asrs	r3, r0, #31
    2d0c:	18c4      	adds	r4, r0, r3
    2d0e:	405c      	eors	r4, r3
    2d10:	0fc5      	lsrs	r5, r0, #31
    2d12:	0020      	movs	r0, r4
    2d14:	f000 f846 	bl	2da4 <__clzsi2>
    2d18:	239e      	movs	r3, #158	; 0x9e
    2d1a:	1a1b      	subs	r3, r3, r0
    2d1c:	2b96      	cmp	r3, #150	; 0x96
    2d1e:	dc0d      	bgt.n	2d3c <__aeabi_i2f+0x38>
    2d20:	2296      	movs	r2, #150	; 0x96
    2d22:	1ad2      	subs	r2, r2, r3
    2d24:	4094      	lsls	r4, r2
    2d26:	002a      	movs	r2, r5
    2d28:	0264      	lsls	r4, r4, #9
    2d2a:	0a64      	lsrs	r4, r4, #9
    2d2c:	b2db      	uxtb	r3, r3
    2d2e:	0264      	lsls	r4, r4, #9
    2d30:	05db      	lsls	r3, r3, #23
    2d32:	0a60      	lsrs	r0, r4, #9
    2d34:	07d2      	lsls	r2, r2, #31
    2d36:	4318      	orrs	r0, r3
    2d38:	4310      	orrs	r0, r2
    2d3a:	bd70      	pop	{r4, r5, r6, pc}
    2d3c:	2b99      	cmp	r3, #153	; 0x99
    2d3e:	dc19      	bgt.n	2d74 <__aeabi_i2f+0x70>
    2d40:	2299      	movs	r2, #153	; 0x99
    2d42:	1ad2      	subs	r2, r2, r3
    2d44:	2a00      	cmp	r2, #0
    2d46:	dd29      	ble.n	2d9c <__aeabi_i2f+0x98>
    2d48:	4094      	lsls	r4, r2
    2d4a:	0022      	movs	r2, r4
    2d4c:	4c14      	ldr	r4, [pc, #80]	; (2da0 <__aeabi_i2f+0x9c>)
    2d4e:	4014      	ands	r4, r2
    2d50:	0751      	lsls	r1, r2, #29
    2d52:	d004      	beq.n	2d5e <__aeabi_i2f+0x5a>
    2d54:	210f      	movs	r1, #15
    2d56:	400a      	ands	r2, r1
    2d58:	2a04      	cmp	r2, #4
    2d5a:	d000      	beq.n	2d5e <__aeabi_i2f+0x5a>
    2d5c:	3404      	adds	r4, #4
    2d5e:	0162      	lsls	r2, r4, #5
    2d60:	d413      	bmi.n	2d8a <__aeabi_i2f+0x86>
    2d62:	01a4      	lsls	r4, r4, #6
    2d64:	0a64      	lsrs	r4, r4, #9
    2d66:	b2db      	uxtb	r3, r3
    2d68:	002a      	movs	r2, r5
    2d6a:	e7e0      	b.n	2d2e <__aeabi_i2f+0x2a>
    2d6c:	2200      	movs	r2, #0
    2d6e:	2300      	movs	r3, #0
    2d70:	2400      	movs	r4, #0
    2d72:	e7dc      	b.n	2d2e <__aeabi_i2f+0x2a>
    2d74:	2205      	movs	r2, #5
    2d76:	0021      	movs	r1, r4
    2d78:	1a12      	subs	r2, r2, r0
    2d7a:	40d1      	lsrs	r1, r2
    2d7c:	22b9      	movs	r2, #185	; 0xb9
    2d7e:	1ad2      	subs	r2, r2, r3
    2d80:	4094      	lsls	r4, r2
    2d82:	1e62      	subs	r2, r4, #1
    2d84:	4194      	sbcs	r4, r2
    2d86:	430c      	orrs	r4, r1
    2d88:	e7da      	b.n	2d40 <__aeabi_i2f+0x3c>
    2d8a:	4b05      	ldr	r3, [pc, #20]	; (2da0 <__aeabi_i2f+0x9c>)
    2d8c:	002a      	movs	r2, r5
    2d8e:	401c      	ands	r4, r3
    2d90:	239f      	movs	r3, #159	; 0x9f
    2d92:	01a4      	lsls	r4, r4, #6
    2d94:	1a1b      	subs	r3, r3, r0
    2d96:	0a64      	lsrs	r4, r4, #9
    2d98:	b2db      	uxtb	r3, r3
    2d9a:	e7c8      	b.n	2d2e <__aeabi_i2f+0x2a>
    2d9c:	0022      	movs	r2, r4
    2d9e:	e7d5      	b.n	2d4c <__aeabi_i2f+0x48>
    2da0:	fbffffff 	.word	0xfbffffff

00002da4 <__clzsi2>:
    2da4:	211c      	movs	r1, #28
    2da6:	2301      	movs	r3, #1
    2da8:	041b      	lsls	r3, r3, #16
    2daa:	4298      	cmp	r0, r3
    2dac:	d301      	bcc.n	2db2 <__clzsi2+0xe>
    2dae:	0c00      	lsrs	r0, r0, #16
    2db0:	3910      	subs	r1, #16
    2db2:	0a1b      	lsrs	r3, r3, #8
    2db4:	4298      	cmp	r0, r3
    2db6:	d301      	bcc.n	2dbc <__clzsi2+0x18>
    2db8:	0a00      	lsrs	r0, r0, #8
    2dba:	3908      	subs	r1, #8
    2dbc:	091b      	lsrs	r3, r3, #4
    2dbe:	4298      	cmp	r0, r3
    2dc0:	d301      	bcc.n	2dc6 <__clzsi2+0x22>
    2dc2:	0900      	lsrs	r0, r0, #4
    2dc4:	3904      	subs	r1, #4
    2dc6:	a202      	add	r2, pc, #8	; (adr r2, 2dd0 <__clzsi2+0x2c>)
    2dc8:	5c10      	ldrb	r0, [r2, r0]
    2dca:	1840      	adds	r0, r0, r1
    2dcc:	4770      	bx	lr
    2dce:	46c0      	nop			; (mov r8, r8)
    2dd0:	02020304 	.word	0x02020304
    2dd4:	01010101 	.word	0x01010101
	...

00002de0 <__ctzsi2>:
    2de0:	4241      	negs	r1, r0
    2de2:	4008      	ands	r0, r1
    2de4:	211c      	movs	r1, #28
    2de6:	2301      	movs	r3, #1
    2de8:	041b      	lsls	r3, r3, #16
    2dea:	4298      	cmp	r0, r3
    2dec:	d301      	bcc.n	2df2 <__ctzsi2+0x12>
    2dee:	0c00      	lsrs	r0, r0, #16
    2df0:	3910      	subs	r1, #16
    2df2:	0a1b      	lsrs	r3, r3, #8
    2df4:	4298      	cmp	r0, r3
    2df6:	d301      	bcc.n	2dfc <__ctzsi2+0x1c>
    2df8:	0a00      	lsrs	r0, r0, #8
    2dfa:	3908      	subs	r1, #8
    2dfc:	091b      	lsrs	r3, r3, #4
    2dfe:	4298      	cmp	r0, r3
    2e00:	d301      	bcc.n	2e06 <__ctzsi2+0x26>
    2e02:	0900      	lsrs	r0, r0, #4
    2e04:	3904      	subs	r1, #4
    2e06:	a202      	add	r2, pc, #8	; (adr r2, 2e10 <__ctzsi2+0x30>)
    2e08:	5c10      	ldrb	r0, [r2, r0]
    2e0a:	1a40      	subs	r0, r0, r1
    2e0c:	4770      	bx	lr
    2e0e:	46c0      	nop			; (mov r8, r8)
    2e10:	1d1d1c1b 	.word	0x1d1d1c1b
    2e14:	1e1e1e1e 	.word	0x1e1e1e1e
    2e18:	1f1f1f1f 	.word	0x1f1f1f1f
    2e1c:	1f1f1f1f 	.word	0x1f1f1f1f

00002e20 <__libc_init_array>:
    2e20:	b570      	push	{r4, r5, r6, lr}
    2e22:	2600      	movs	r6, #0
    2e24:	4d0c      	ldr	r5, [pc, #48]	; (2e58 <__libc_init_array+0x38>)
    2e26:	4c0d      	ldr	r4, [pc, #52]	; (2e5c <__libc_init_array+0x3c>)
    2e28:	1b64      	subs	r4, r4, r5
    2e2a:	10a4      	asrs	r4, r4, #2
    2e2c:	42a6      	cmp	r6, r4
    2e2e:	d109      	bne.n	2e44 <__libc_init_array+0x24>
    2e30:	2600      	movs	r6, #0
    2e32:	f000 fa23 	bl	327c <_init>
    2e36:	4d0a      	ldr	r5, [pc, #40]	; (2e60 <__libc_init_array+0x40>)
    2e38:	4c0a      	ldr	r4, [pc, #40]	; (2e64 <__libc_init_array+0x44>)
    2e3a:	1b64      	subs	r4, r4, r5
    2e3c:	10a4      	asrs	r4, r4, #2
    2e3e:	42a6      	cmp	r6, r4
    2e40:	d105      	bne.n	2e4e <__libc_init_array+0x2e>
    2e42:	bd70      	pop	{r4, r5, r6, pc}
    2e44:	00b3      	lsls	r3, r6, #2
    2e46:	58eb      	ldr	r3, [r5, r3]
    2e48:	4798      	blx	r3
    2e4a:	3601      	adds	r6, #1
    2e4c:	e7ee      	b.n	2e2c <__libc_init_array+0xc>
    2e4e:	00b3      	lsls	r3, r6, #2
    2e50:	58eb      	ldr	r3, [r5, r3]
    2e52:	4798      	blx	r3
    2e54:	3601      	adds	r6, #1
    2e56:	e7f2      	b.n	2e3e <__libc_init_array+0x1e>
    2e58:	00003288 	.word	0x00003288
    2e5c:	00003288 	.word	0x00003288
    2e60:	00003288 	.word	0x00003288
    2e64:	0000328c 	.word	0x0000328c
    2e68:	682f2e2e 	.word	0x682f2e2e
    2e6c:	702f6c70 	.word	0x702f6c70
    2e70:	2f74726f 	.word	0x2f74726f
    2e74:	5f6c7068 	.word	0x5f6c7068
    2e78:	6f697067 	.word	0x6f697067
    2e7c:	7361625f 	.word	0x7361625f
    2e80:	00682e65 	.word	0x00682e65
    2e84:	682f2e2e 	.word	0x682f2e2e
    2e88:	732f6c61 	.word	0x732f6c61
    2e8c:	682f6372 	.word	0x682f6372
    2e90:	735f6c61 	.word	0x735f6c61
    2e94:	6d5f6970 	.word	0x6d5f6970
    2e98:	7973615f 	.word	0x7973615f
    2e9c:	632e636e 	.word	0x632e636e
    2ea0:	00          	.byte	0x00
    2ea1:	2e          	.byte	0x2e
    2ea2:	2f2e      	.short	0x2f2e
    2ea4:	2f6c6168 	.word	0x2f6c6168
    2ea8:	2f637273 	.word	0x2f637273
    2eac:	5f6c6168 	.word	0x5f6c6168
    2eb0:	656d6974 	.word	0x656d6974
    2eb4:	00632e72 	.word	0x00632e72
    2eb8:	682f2e2e 	.word	0x682f2e2e
    2ebc:	732f6c61 	.word	0x732f6c61
    2ec0:	682f6372 	.word	0x682f6372
    2ec4:	755f6c61 	.word	0x755f6c61
    2ec8:	74726173 	.word	0x74726173
    2ecc:	6e79735f 	.word	0x6e79735f
    2ed0:	00632e63 	.word	0x00632e63
    2ed4:	682f2e2e 	.word	0x682f2e2e
    2ed8:	752f6c61 	.word	0x752f6c61
    2edc:	736c6974 	.word	0x736c6974
    2ee0:	6372732f 	.word	0x6372732f
    2ee4:	6974752f 	.word	0x6974752f
    2ee8:	6c5f736c 	.word	0x6c5f736c
    2eec:	2e747369 	.word	0x2e747369
    2ef0:	00000063 	.word	0x00000063

00002ef4 <_map>:
    2ef4:	00000003 00000023 682f2e2e 652f6c70     ....#...../hpl/e
    2f04:	682f6369 655f6c70 632e6369 2f2e2e00     ic/hpl_eic.c.../
    2f14:	2f6c7068 2f637472 5f6c7068 2e637472     hpl/rtc/hpl_rtc.
    2f24:	00000063                                c...

00002f28 <_i2cms>:
	...

00002f40 <sercomspi_regs>:
    2f40:	0020000c 00020000 00000000 00ff0003     .. .............
    2f50:	02000c00 02000000 00000000 ff000300     ................
    2f60:	000c0100 00000030 00000002 00030000     ....0...........
    2f70:	2e0400ff 70682f2e 65732f6c 6d6f6372     ...../hpl/sercom
    2f80:	6c70682f 7265735f 2e6d6f63 00000063              /hpl_sercom.c.

00002f8e <gu16Crc16Table>:
    2f8e:	10210000 30632042 50a54084 70e760c6     ..!.B c0.@.P.`.p
    2f9e:	91298108 b16ba14a d1adc18c f1efe1ce     ..).J.k.........
    2fae:	02101231 22523273 429452b5 62d672f7     1...s2R".R.B.r.b
    2fbe:	83189339 a35ab37b c39cd3bd e3def3ff     9...{.Z.........
    2fce:	34432462 14010420 74c764e6 548544a4     b$C4 ....d.t.D.T
    2fde:	b54ba56a 95098528 f5cfe5ee d58dc5ac     j.K.(...........
    2fee:	26723653 06301611 66f676d7 46b45695     S6r&..0..v.f.V.F
    2ffe:	a77ab75b 87389719 e7fef7df c7bcd79d     [.z...8.........
    300e:	58e548c4 78a76886 18610840 38232802     .H.X.h.x@.a..(#8
    301e:	d9edc9cc f9afe98e 99698948 b92ba90a     ........H.i...+.
    302e:	4ad45af5 6a967ab7 0a501a71 2a123a33     .Z.J.z.jq.P.3:.*
    303e:	cbdcdbfd eb9efbbf 8b589b79 ab1abb3b     ........y.X.;...
    304e:	7c876ca6 5cc54ce4 3c032c22 1c410c60     .l.|.L.\",.<`.A.
    305e:	fd8fedae ddcdcdec bd0bad2a 9d498d68     ........*...h.I.
    306e:	6eb67e97 4ef45ed5 2e323e13 0e701e51     .~.n.^.N.>2.Q.p.
    307e:	efbeff9f cffcdfdd af3abf1b 8f789f59     ..........:.Y.x.
    308e:	81a99188 a1ebb1ca c12dd10c e16ff14e     ..........-.N.o.
    309e:	00a11080 20e330c2 40255004 60677046     .....0. .P%@Fpg`
    30ae:	939883b9 b3daa3fb d31cc33d f35ee37f     ........=.....^.
    30be:	129002b1 32d222f3 52144235 72566277     .....".25B.RwbVr
    30ce:	a5cbb5ea 858995a8 e54ff56e c50dd52c     ........n.O.,...
    30de:	24c334e2 048114a0 64477466 44055424     .4.$....ftGd$T.D
    30ee:	b7faa7db 97b88799 f77ee75f d73cc71d     ........_.~...<.
    30fe:	36f226d3 16b00691 76766657 56344615     .&.6....Wfvv.F4V
    310e:	c96dd94c e92ff90e 89e999c8 a9abb98a     L.m.../.........
    311e:	48655844 68277806 08e118c0 28a33882     DXeH.x'h.....8.(
    312e:	db5ccb7d fb1eeb3f 9bd88bf9 bb9aabbb     }.\.?...........
    313e:	5a544a75 7a166a37 1ad00af1 3a922ab3     uJTZ7j.z.....*.:
    314e:	ed0ffd2e cd4ddd6c ad8bbdaa 8dc99de8     ....l.M.........
    315e:	6c077c26 4c455c64 2c833ca2 0cc11ce0     &|.ld\EL.<.,....
    316e:	ff3eef1f df7ccf5d bfbaaf9b 9ff88fd9     ..>.].|.........
    317e:	7e366e17 5e744e55 3eb22e93 1ef00ed1     .n6~UNt^...>....
    318e:	303a3956 4f50443a 6c5f5350 68637469     V9:0:DPOPS_litch
    319e:	6361685f 4475206b 20534341 20766552     _hack uDACS Rev 
    31ae:	31562042 5320322e 333a4e2f 26880000     B V1.2 S/N:3...&
    31be:	26580000 266a0000 25ac0000 266a0000     ..X&..j&...%..j&
    31ce:	264e0000 266a0000 25ac0000 26580000     ..N&..j&...%..X&
    31de:	26580000 264e0000 25ac0000 25b40000     ..X&..N&...%...%
    31ee:	25b40000 25b40000 26700000 26580000     ...%...%..p&..X&
    31fe:	26580000 262c0000 27100000 262c0000     ..X&..,&...'..,&
    320e:	264e0000 262c0000 27100000 26580000     ..N&..,&...'..X&
    321e:	26580000 264e0000 27100000 25b40000     ..X&..N&...'...%
    322e:	25b40000 25b40000 271a0000 28b80000     ...%...%...'...(
    323e:	28080000 28080000 28060000 28aa0000     ...(...(...(...(
    324e:	28aa0000 28a00000 28060000 28aa0000     ...(...(...(...(
    325e:	28a00000 28aa0000 28060000 28b00000     ...(...(...(...(
    326e:	28b00000 28b00000 29400000 b5f80000              ...(...(..@)..

0000327c <_init>:
    327c:	b5f8      	push	{r3, r4, r5, r6, r7, lr}
    327e:	46c0      	nop			; (mov r8, r8)
    3280:	bcf8      	pop	{r3, r4, r5, r6, r7}
    3282:	bc08      	pop	{r3}
    3284:	469e      	mov	lr, r3
    3286:	4770      	bx	lr

00003288 <__init_array_start>:
    3288:	000000dd 	.word	0x000000dd

0000328c <_fini>:
    328c:	b5f8      	push	{r3, r4, r5, r6, r7, lr}
    328e:	46c0      	nop			; (mov r8, r8)
    3290:	bcf8      	pop	{r3, r4, r5, r6, r7}
    3292:	bc08      	pop	{r3}
    3294:	469e      	mov	lr, r3
    3296:	4770      	bx	lr

00003298 <__fini_array_start>:
    3298:	000000b5 	.word	0x000000b5
